(S'FLP3FBN01B9U1E'
p0
I50
(dp1
S'FLP3FBN01C2MYD'
p2
(lp3
sS'FLP3FBN01B2CCU'
p4
(lp5
sS'FLP3FBN01DVTZC'
p6
(lp7
sS'FLP3FBN01A2E42'
p8
(lp9
sS'FLP3FBN01DD28G'
p10
(lp11
S'FLP3FBN01AZSCT'
p12
aS'FLP3FBN01AELDH'
p13
aS'FLP3FBN01A0QD0'
p14
aS'FLP3FBN01DX6WZ'
p15
aS'FLP3FBN01A7HFD'
p16
aS'FLP3FBN01AMPHD'
p17
aS'FLP3FBN01D1576'
p18
aS'FLP3FBN01CZPD2'
p19
aS'FLP3FBN01D7KO6'
p20
aS'FLP3FBN01D7PW9'
p21
aS'FLP3FBN01EIOYS'
p22
aS'FLP3FBN01DLI9X'
p23
aS'FLP3FBN01APPTP'
p24
aS'FLP3FBN01CTE7A'
p25
aS'FLP3FBN01EKS2G'
p26
aS'FLP3FBN01EJF8M'
p27
aS'FLP3FBN01AEJLU'
p28
aS'FLP3FBN01DZILX'
p29
aS'FLP3FBN01CKVKR'
p30
aS'FLP3FBN01CEZZE'
p31
aS'FLP3FBN01EOHM5'
p32
aS'FLP3FBN01AYGIQ'
p33
aS'FLP3FBN01AN9E6'
p34
aS'FLP3FBN01BYZHF'
p35
aS'FLP3FBN01A9WKI'
p36
aS'FLP3FBN01EP59G'
p37
aS'FLP3FBN01EUKQQ'
p38
aS'FLP3FBN01B39O5'
p39
aS'FLP3FBN01D9D5Q'
p40
aS'FLP3FBN01DY7BY'
p41
aS'FLP3FBN01DZOKU'
p42
aS'FLP3FBN01DBSZG'
p43
aS'FLP3FBN01D8UA3'
p44
aS'FLP3FBN01ATVZT'
p45
aS'FLP3FBN01DY4CI'
p46
aS'FLP3FBN01COFU8'
p47
aS'FLP3FBN01D9H69'
p48
aS'FLP3FBN01CJZCS'
p49
aS'FLP3FBN01CODQH'
p50
aS'FLP3FBN01BUMJK'
p51
aS'FLP3FBN01APHXO'
p52
aS'FLP3FBN01E11F6'
p53
aS'FLP3FBN01AY6JF'
p54
asS'FLP3FBN01CHYQT'
p55
(lp56
sS'FLP3FBN01ET99E'
p57
(lp58
sS'FLP3FBN01AFERM'
p59
(lp60
sS'FLP3FBN01BKTRL'
p61
(lp62
S'FLP3FBN01AMXVM'
p63
asS'FLP3FBN01ET7S1'
p64
(lp65
S'FLP3FBN01DYE6O'
p66
asS'FLP3FBN01B0H89'
p67
(lp68
S'FLP3FBN01AYFQO'
p69
aS'FLP3FBN01DWXHY'
p70
aS'FLP3FBN01D5PDA'
p71
aS'FLP3FBN01DYU4B'
p72
aS'FLP3FBN01CKQDF'
p73
asS'FLP3FBN01B06QS'
p74
(lp75
sS'FLP3FBN01DVAA4'
p76
(lp77
sS'FLP3FBN01C1ALJ'
p78
(lp79
sS'FLP3FBN01ATZTQ'
p80
(lp81
sS'FLP3FBN01DHOF4'
p82
(lp83
sS'FLP3FBN01A44HD'
p84
(lp85
sS'FLP3FBN01B4KSX'
p86
(lp87
sS'FLP3FBN01C4VM7'
p88
(lp89
sS'FLP3FBN01D9QTP'
p90
(lp91
sS'FLP3FBN01EG8AX'
p92
(lp93
S'FLP3FBN01DH4LG'
p94
aS'FLP3FBN01DCU7E'
p95
aS'FLP3FBN01AYTJU'
p96
aS'FLP3FBN01D837F'
p97
aS'FLP3FBN01ET0T4'
p98
aS'FLP3FBN01BFDT5'
p99
aS'FLP3FBN01BS7JZ'
p100
aS'FLP3FBN01A0UCW'
p101
aS'FLP3FBN01CPD70'
p102
aS'FLP3FBN01ESJ5R'
p103
aS'FLP3FBN01C68BF'
p104
aS'FLP3FBN01B533J'
p105
aS'FLP3FBN01AIIWJ'
p106
asS'FLP3FBN01BF0UO'
p107
(lp108
sS'FLP3FBN01ETLIN'
p109
(lp110
sS'FLP3FBN01DO0PN'
p111
(lp112
S'FLP3FBN01ES2CK'
p113
asS'FLP3FBN01DVF2L'
p114
(lp115
sS'FLP3FBN01BO4IE'
p116
(lp117
sS'FLP3FBN01B8KLV'
p118
(lp119
sS'FLP3FBN01AK9WE'
p120
(lp121
sS'FLP3FBN01DRS0G'
p122
(lp123
sS'FLP3FBN01EF15V'
p124
(lp125
sS'FLP3FBN01AP7UV'
p126
(lp127
sS'FLP3FBN01ELLAQ'
p128
(lp129
sS'FLP3FBN01BVAH3'
p130
(lp131
sS'FLP3FBN01AIDK4'
p132
(lp133
sS'FLP3FBN01DYJU9'
p134
(lp135
sS'FLP3FBN01AGO5G'
p136
(lp137
sS'FLP3FBN01ALCR0'
p138
(lp139
sS'FLP3FBN01BE65F'
p140
(lp141
sS'FLP3FBN01BSTU3'
p142
(lp143
sS'FLP3FBN01DFQEI'
p144
(lp145
sS'FLP3FBN01A5MND'
p146
(lp147
S'FLP3FBN01BJV71'
p148
asS'FLP3FBN01EFG5X'
p149
(lp150
sS'FLP3FBN01CSZZD'
p151
(lp152
S'FLP3FBN01CC1O1'
p153
asS'FLP3FBN01D6990'
p154
(lp155
sS'FLP3FBN01CSQSY'
p156
(lp157
sS'FLP3FBN01EFIS6'
p158
(lp159
sS'FLP3FBN01CKTVO'
p160
(lp161
sS'FLP3FBN01C1PP4'
p162
(lp163
sS'FLP3FBN01C6H6I'
p164
(lp165
sS'FLP3FBN01B9O3L'
p166
(lp167
sS'FLP3FBN01AMFGP'
p168
(lp169
sS'FLP3FBN01CPEDQ'
p170
(lp171
sS'FLP3FBN01ELE68'
p172
(lp173
sS'FLP3FBN01CEU1Z'
p174
(lp175
sS'FLP3FBN01DF6XB'
p176
(lp177
sS'FLP3FBN01BGEG7'
p178
(lp179
sS'FLP3FBN01EOJO5'
p180
(lp181
sS'FLP3FBN01CURUA'
p182
(lp183
sS'FLP3FBN01EAKES'
p184
(lp185
sS'FLP3FBN01DT66J'
p186
(lp187
sS'FLP3FBN01EN0R5'
p188
(lp189
sS'FLP3FBN01AWYZD'
p190
(lp191
S'FLP3FBN01EIDVP'
p192
aS'FLP3FBN01C3FYG'
p193
aS'FLP3FBN01DYU35'
p194
aS'FLP3FBN01DRO6W'
p195
aS'FLP3FBN01BAHPU'
p196
aS'FLP3FBN01CDDGT'
p197
aS'FLP3FBN01EMNUG'
p198
aS'FLP3FBN01EBIVZ'
p199
aS'FLP3FBN01EOGU6'
p200
aS'FLP3FBN01AHKPL'
p201
aS'FLP3FBN01AWE2B'
p202
aS'FLP3FBN01CLZGK'
p203
aS'FLP3FBN01BDWJA'
p204
aS'FLP3FBN01A3D61'
p205
aS'FLP3FBN01A5RUT'
p206
aS'FLP3FBN01EXM1D'
p207
aS'FLP3FBN01BMNXJ'
p208
aS'FLP3FBN01EP18M'
p209
aS'FLP3FBN01CNAWV'
p210
aS'FLP3FBN01ADQU7'
p211
aS'FLP3FBN01C2VAB'
p212
aS'FLP3FBN01CAKPN'
p213
aS'FLP3FBN01BGW2P'
p214
aS'FLP3FBN01EEWKD'
p215
aS'FLP3FBN01DFTRG'
p216
aS'FLP3FBN01CZE2X'
p217
aS'FLP3FBN01BBORZ'
p218
aS'FLP3FBN01DQAD5'
p219
aS'FLP3FBN01EEXTN'
p220
asS'FLP3FBN01A9OKC'
p221
(lp222
sS'FLP3FBN01BMLLI'
p223
(lp224
sS'FLP3FBN01A44JU'
p225
(lp226
S'FLP3FBN01BI38I'
p227
aS'FLP3FBN01B5T3T'
p228
aS'FLP3FBN01BWBS4'
p229
aS'FLP3FBN01CM7ZF'
p230
aS'FLP3FBN01AUK9B'
p231
aS'FLP3FBN01A9EX0'
p232
aS'FLP3FBN01A3PGP'
p233
aS'FLP3FBN01BHVDZ'
p234
aS'FLP3FBN01BR61D'
p235
aS'FLP3FBN01BBAE6'
p236
aS'FLP3FBN01CI8Z2'
p237
aS'FLP3FBN01DP53S'
p238
aS'FLP3FBN01AE1JZ'
p239
aS'FLP3FBN01CN8VK'
p240
aS'FLP3FBN01DDGAY'
p241
aS'FLP3FBN01DIPTV'
p242
aS'FLP3FBN01ANBIL'
p243
asS'FLP3FBN01CPQSL'
p244
(lp245
sS'FLP3FBN01C7M7W'
p246
(lp247
sS'FLP3FBN01EC56I'
p248
(lp249
sS'FLP3FBN01BAJ58'
p250
(lp251
sS'FLP3FBN01AMRRA'
p252
(lp253
sS'FLP3FBN01CHYG5'
p254
(lp255
sS'FLP3FBN01D7O1S'
p256
(lp257
sS'FLP3FBN01D6TCI'
p258
(lp259
sS'FLP3FBN01A3YNV'
p260
(lp261
sS'FLP3FBN01DM0XL'
p262
(lp263
sS'FLP3FBN01EUT65'
p264
(lp265
sS'FLP3FBN01A1UPS'
p266
(lp267
sS'FLP3FBN01CUD3O'
p268
(lp269
sS'FLP3FBN01BI3Q6'
p270
(lp271
S'FLP3FBN01EH9DF'
p272
asS'FLP3FBN01C44O7'
p273
(lp274
sS'FLP3FBN01AGF7L'
p275
(lp276
S'FLP3FBN01EGU6E'
p277
aS'FLP3FBN01DWQWF'
p278
aS'FLP3FBN01B495L'
p279
aS'FLP3FBN01EPDN4'
p280
aS'FLP3FBN01D0KPW'
p281
aS'FLP3FBN01CNXDO'
p282
aS'FLP3FBN01EMNLG'
p283
aS'FLP3FBN01BR1S4'
p284
aS'FLP3FBN01EO993'
p285
aS'FLP3FBN01CCNMN'
p286
asS'FLP3FBN01AZ93K'
p287
(lp288
sS'FLP3FBN01ECTYY'
p289
(lp290
sS'FLP3FBN01EE1C3'
p291
(lp292
sS'FLP3FBN01ARUVC'
p293
(lp294
S'FLP3FBN01B5NT1'
p295
aS'FLP3FBN01CTZRH'
p296
aS'FLP3FBN01BI8Q8'
p297
aS'FLP3FBN01DOZ1S'
p298
aS'FLP3FBN01AK0GJ'
p299
aS'FLP3FBN01AE4FR'
p300
aS'FLP3FBN01DAJ0V'
p301
aS'FLP3FBN01DPA2Y'
p302
aS'FLP3FBN01A1GYR'
p303
asS'FLP3FBN01AJ4R9'
p304
(lp305
sS'FLP3FBN01B6YON'
p306
(lp307
sS'FLP3FBN01BDPN5'
p308
(lp309
sS'FLP3FBN01DHLY4'
p310
(lp311
S'FLP3FBN01CYH88'
p312
asS'FLP3FBN01DR3RW'
p313
(lp314
sS'FLP3FBN01DZNIH'
p315
(lp316
sS'FLP3FBN01BD8E7'
p317
(lp318
sS'FLP3FBN01DXZGT'
p319
(lp320
S'FLP3FBN01DPA1A'
p321
aS'FLP3FBN01CKM98'
p322
aS'FLP3FBN01ASUWG'
p323
aS'FLP3FBN01AY6CG'
p324
aS'FLP3FBN01DR6KE'
p325
aS'FLP3FBN01CHIXK'
p326
aS'FLP3FBN01BW3YV'
p327
aS'FLP3FBN01BV60P'
p328
aS'FLP3FBN01ANMU2'
p329
aS'FLP3FBN01ANJSA'
p330
aS'FLP3FBN01D75ZT'
p331
aS'FLP3FBN01D8YZ5'
p332
asS'FLP3FBN01DMBQY'
p333
(lp334
sS'FLP3FBN01DBC7G'
p335
(lp336
sS'FLP3FBN01AYADU'
p337
(lp338
sS'FLP3FBN01CR7MF'
p339
(lp340
sS'FLP3FBN01AKD0L'
p341
(lp342
sS'FLP3FBN01D55K5'
p343
(lp344
sS'FLP3FBN01AY2QI'
p345
(lp346
S'FLP3FBN01BAT5U'
p347
aS'FLP3FBN01BBDRA'
p348
aS'FLP3FBN01DVJS5'
p349
aS'FLP3FBN01DDXJ9'
p350
aS'FLP3FBN01C354R'
p351
aS'FLP3FBN01DTXOJ'
p352
aS'FLP3FBN01AZ963'
p353
aS'FLP3FBN01DNNDF'
p354
aS'FLP3FBN01DPJ0D'
p355
asS'FLP3FBN01C1F87'
p356
(lp357
sS'FLP3FBN01AER1M'
p358
(lp359
sS'FLP3FBN01DTYVK'
p360
(lp361
sS'FLP3FBN01AUBJF'
p362
(lp363
sS'FLP3FBN01BWI9J'
p364
(lp365
sS'FLP3FBN01ANKI1'
p366
(lp367
sS'FLP3FBN01DJ1EH'
p368
(lp369
sS'FLP3FBN01BZ1F6'
p370
(lp371
sS'FLP3FBN01AYGA0'
p372
(lp373
sS'FLP3FBN01CWQIO'
p374
(lp375
sS'FLP3FBN01D8VJ6'
p376
(lp377
sS'FLP3FBN01BJL13'
p378
(lp379
S'FLP3FBN01EB7G2'
p380
aS'FLP3FBN01EMEL5'
p381
asS'FLP3FBN01EAC1O'
p382
(lp383
sS'FLP3FBN01A6KUH'
p384
(lp385
sS'FLP3FBN01D5Y47'
p386
(lp387
sS'FLP3FBN01A1FYD'
p388
(lp389
sS'FLP3FBN01B4E5A'
p390
(lp391
sS'FLP3FBN01B5DKJ'
p392
(lp393
sS'FLP3FBN01ELYL8'
p394
(lp395
sS'FLP3FBN01ENY6F'
p396
(lp397
sS'FLP3FBN01CLMTS'
p398
(lp399
sS'FLP3FBN01BYVGX'
p400
(lp401
S'FLP3FBN01DJSHD'
p402
asS'FLP3FBN01DZ97Y'
p403
(lp404
sS'FLP3FBN01CAN8M'
p405
(lp406
sS'FLP3FBN01CEUYF'
p407
(lp408
sS'FLP3FBN01APXMT'
p409
(lp410
sS'FLP3FBN01CAOAX'
p411
(lp412
sS'FLP3FBN01BZNMV'
p413
(lp414
S'FLP3FBN01EPZM5'
p415
asS'FLP3FBN01BJE5P'
p416
(lp417
sS'FLP3FBN01DJY30'
p418
(lp419
sS'FLP3FBN01CGYKR'
p420
(lp421
sS'FLP3FBN01EFPI1'
p422
(lp423
S'FLP3FBN01A208L'
p424
aS'FLP3FBN01DZG2M'
p425
aS'FLP3FBN01D3EWI'
p426
aS'FLP3FBN01AN2IX'
p427
aS'FLP3FBN01CIJW1'
p428
aS'FLP3FBN01DLFJ6'
p429
aS'FLP3FBN01DHCC5'
p430
aS'FLP3FBN01EVPJE'
p431
aS'FLP3FBN01BAA4G'
p432
aS'FLP3FBN01DZYQE'
p433
aS'FLP3FBN01AXLO6'
p434
aS'FLP3FBN01CDLEW'
p435
aS'FLP3FBN01AHK73'
p436
aS'FLP3FBN01AFTMX'
p437
aS'FLP3FBN01AQ9FC'
p438
aS'FLP3FBN01BHLXV'
p439
aS'FLP3FBN01EEB9U'
p440
aS'FLP3FBN01EECRG'
p441
aS'FLP3FBN01EM8RT'
p442
aS'FLP3FBN01BA9G8'
p443
aS'FLP3FBN01D6CH7'
p444
aS'FLP3FBN01C61FL'
p445
aS'FLP3FBN01ESGKH'
p446
aS'FLP3FBN01A5KJQ'
p447
aS'FLP3FBN01DOBTJ'
p448
aS'FLP3FBN01A4K2C'
p449
aS'FLP3FBN01B02WO'
p450
aS'FLP3FBN01AGC0G'
p451
aS'FLP3FBN01BG1KW'
p452
aS'FLP3FBN01BGO68'
p453
aS'FLP3FBN01B08NI'
p454
aS'FLP3FBN01CAD0I'
p455
aS'FLP3FBN01AJ7P4'
p456
aS'FLP3FBN01BYVKN'
p457
aS'FLP3FBN01C7P3U'
p458
aS'FLP3FBN01DUWHJ'
p459
aS'FLP3FBN01BMERW'
p460
aS'FLP3FBN01D7AVV'
p461
aS'FLP3FBN01B74TP'
p462
aS'FLP3FBN01A00UU'
p463
aS'FLP3FBN01BGO9L'
p464
aS'FLP3FBN01A4UET'
p465
aS'FLP3FBN01AMVJR'
p466
aS'FLP3FBN01A6R98'
p467
aS'FLP3FBN01CSG40'
p468
aS'FLP3FBN01C6P40'
p469
aS'FLP3FBN01EC99X'
p470
aS'FLP3FBN01BUOD1'
p471
aS'FLP3FBN01DUG1R'
p472
aS'FLP3FBN01D7325'
p473
aS'FLP3FBN01CFTC2'
p474
aS'FLP3FBN01EK704'
p475
aS'FLP3FBN01D0A3H'
p476
aS'FLP3FBN01BUFD0'
p477
aS'FLP3FBN01AIT2F'
p478
asS'FLP3FBN01ARTG1'
p479
(lp480
sS'FLP3FBN01AOU7Q'
p481
(lp482
sS'FLP3FBN01B32LN'
p483
(lp484
S'FLP3FBN01A6LEJ'
p485
aS'FLP3FBN01ED5UR'
p486
aS'FLP3FBN01DTX5C'
p487
aS'FLP3FBN01BVDVK'
p488
aS'FLP3FBN01AGMY0'
p489
aS'FLP3FBN01AIA4D'
p490
aS'FLP3FBN01BTVUO'
p491
aS'FLP3FBN01EADWQ'
p492
aS'FLP3FBN01C1B5E'
p493
aS'FLP3FBN01DAXF4'
p494
aS'FLP3FBN01CG2MW'
p495
aS'FLP3FBN01CIG7X'
p496
aS'FLP3FBN01EDR54'
p497
aS'FLP3FBN01BR0YS'
p498
aS'FLP3FBN01CVDF5'
p499
aS'FLP3FBN01AST80'
p500
aS'FLP3FBN01C5Q76'
p501
aS'FLP3FBN01DDAHB'
p502
aS'FLP3FBN01BY1GK'
p503
aS'FLP3FBN01DZ6HR'
p504
aS'FLP3FBN01AJ8QN'
p505
aS'FLP3FBN01AUN6V'
p506
aS'FLP3FBN01CBFWS'
p507
aS'FLP3FBN01A86UW'
p508
aS'FLP3FBN01CUQNU'
p509
aS'FLP3FBN01AYIUY'
p510
aS'FLP3FBN01CWLZU'
p511
aS'FLP3FBN01DKNLI'
p512
aS'FLP3FBN01DRT2O'
p513
aS'FLP3FBN01DMQWE'
p514
aS'FLP3FBN01BSM84'
p515
aS'FLP3FBN01D9NXA'
p516
aS'FLP3FBN01AGYWU'
p517
aS'FLP3FBN01D9BZ0'
p518
aS'FLP3FBN01BZKF3'
p519
aS'FLP3FBN01AMBXT'
p520
aS'FLP3FBN01B4MLO'
p521
aS'FLP3FBN01EGJ5Q'
p522
aS'FLP3FBN01A5KXW'
p523
aS'FLP3FBN01DQWOP'
p524
aS'FLP3FBN01CM73M'
p525
aS'FLP3FBN01B2ALM'
p526
aS'FLP3FBN01BZF87'
p527
aS'FLP3FBN01ETR1Z'
p528
aS'FLP3FBN01ENDTE'
p529
aS'FLP3FBN01BV9MF'
p530
aS'FLP3FBN01D5SXD'
p531
aS'FLP3FBN01A88RD'
p532
asS'FLP3FBN01C3PFP'
p533
(lp534
sS'FLP3FBN01BW42C'
p535
(lp536
sS'FLP3FBN01EU5A3'
p537
(lp538
S'FLP3FBN01A7RZC'
p539
aS'FLP3FBN01EJD3A'
p540
asS'FLP3FBN01DYX26'
p541
(lp542
sS'FLP3FBN01D2DVT'
p543
(lp544
sS'FLP3FBN01CK4EX'
p545
(lp546
sS'FLP3FBN01AW01I'
p547
(lp548
sS'FLP3FBN01B4FWO'
p549
(lp550
sS'FLP3FBN01B6DNW'
p551
(lp552
sS'FLP3FBN01D3QET'
p553
(lp554
sS'FLP3FBN01ADKEK'
p555
(lp556
S'FLP3FBN01B4KRR'
p557
asS'FLP3FBN01AR785'
p558
(lp559
sS'FLP3FBN01ARODF'
p560
(lp561
sS'FLP3FBN01BZK6L'
p562
(lp563
sS'FLP3FBN01DQFJG'
p564
(lp565
sS'FLP3FBN01DKURH'
p566
(lp567
sS'FLP3FBN01BAWOL'
p568
(lp569
sS'FLP3FBN01DGRID'
p570
(lp571
sS'FLP3FBN01DH3NR'
p572
(lp573
sS'FLP3FBN01BWF4P'
p574
(lp575
sS'FLP3FBN01AT6OD'
p576
(lp577
sS'FLP3FBN01BA934'
p578
(lp579
sS'FLP3FBN01BVGJF'
p580
(lp581
sS'FLP3FBN01CDJ70'
p582
(lp583
sS'FLP3FBN01D9ANJ'
p584
(lp585
sS'FLP3FBN01CUX8S'
p586
(lp587
sS'FLP3FBN01CSRAJ'
p588
(lp589
sS'FLP3FBN01CNT1Q'
p590
(lp591
sS'FLP3FBN01EFY7W'
p592
(lp593
S'FLP3FBN01CXMVM'
p594
aS'FLP3FBN01CXEQE'
p595
aS'FLP3FBN01D8L02'
p596
aS'FLP3FBN01BHLW4'
p597
asS'FLP3FBN01BQAKZ'
p598
(lp599
sS'FLP3FBN01DSRTP'
p600
(lp601
sS'FLP3FBN01A6FDX'
p602
(lp603
sS'FLP3FBN01D4OI7'
p604
(lp605
sS'FLP3FBN01CD50B'
p606
(lp607
sS'FLP3FBN01D0IW2'
p608
(lp609
sS'FLP3FBN01DQ783'
p610
(lp611
S'FLP3FBN01DRASA'
p612
aS'FLP3FBN01AX7NV'
p613
aS'FLP3FBN01CB1XF'
p614
aS'FLP3FBN01BYPDD'
p615
aS'FLP3FBN01EDR9T'
p616
aS'FLP3FBN01CDTMI'
p617
aS'FLP3FBN01AE4G6'
p618
aS'FLP3FBN01AIELL'
p619
aS'FLP3FBN01D1T0J'
p620
aS'FLP3FBN01D74QJ'
p621
aS'FLP3FBN01D9A6M'
p622
aS'FLP3FBN01AM688'
p623
aS'FLP3FBN01A8KH9'
p624
aS'FLP3FBN01AU6ML'
p625
aS'FLP3FBN01DXJGO'
p626
aS'FLP3FBN01D6Q98'
p627
aS'FLP3FBN01BYSJT'
p628
aS'FLP3FBN01DJ1VW'
p629
aS'FLP3FBN01BHNXZ'
p630
aS'FLP3FBN01DF6NE'
p631
aS'FLP3FBN01C6LRW'
p632
aS'FLP3FBN01AZT44'
p633
aS'FLP3FBN01EU78N'
p634
aS'FLP3FBN01EQG8B'
p635
aS'FLP3FBN01D0C70'
p636
aS'FLP3FBN01AR4YL'
p637
aS'FLP3FBN01BCXZU'
p638
aS'FLP3FBN01CSJ87'
p639
aS'FLP3FBN01DUDZY'
p640
aS'FLP3FBN01CKW1J'
p641
aS'FLP3FBN01DGJIL'
p642
aS'FLP3FBN01BJETT'
p643
aS'FLP3FBN01B6CNT'
p644
aS'FLP3FBN01DGS0V'
p645
aS'FLP3FBN01BJV1A'
p646
aS'FLP3FBN01BJCG1'
p647
aS'FLP3FBN01DQLWU'
p648
aS'FLP3FBN01A7RFW'
p649
aS'FLP3FBN01ALQ01'
p650
aS'FLP3FBN01EHG6O'
p651
aS'FLP3FBN01DDPFF'
p652
aS'FLP3FBN01EMWGJ'
p653
aS'FLP3FBN01BWH0G'
p654
aS'FLP3FBN01D9EK7'
p655
aS'FLP3FBN01CHR1X'
p656
aS'FLP3FBN01A2YVL'
p657
aS'FLP3FBN01CHVM4'
p658
aS'FLP3FBN01D0CQF'
p659
aS'FLP3FBN01E2P4M'
p660
aS'FLP3FBN01DCKQ6'
p661
asS'FLP3FBN01AOR4O'
p662
(lp663
sS'FLP3FBN01DQMNE'
p664
(lp665
sS'FLP3FBN01A0XKK'
p666
(lp667
sS'FLP3FBN01EKZQ1'
p668
(lp669
sS'FLP3FBN01EDWJK'
p670
(lp671
sS'FLP3FBN01DQGNZ'
p672
(lp673
sS'FLP3FBN01B54IG'
p674
(lp675
sS'FLP3FBN01DHLQN'
p676
(lp677
S'FLP3FBN01DBVV5'
p678
aS'FLP3FBN01A2T1M'
p679
aS'FLP3FBN01ELBSX'
p680
asS'FLP3FBN01CATW7'
p681
(lp682
S'FLP3FBN01DH6AB'
p683
aS'FLP3FBN01D1YSR'
p684
aS'FLP3FBN01BY17V'
p685
aS'FLP3FBN01DJ7Y0'
p686
aS'FLP3FBN01EEO1S'
p687
aS'FLP3FBN01BE5VX'
p688
aS'FLP3FBN01AYO4X'
p689
aS'FLP3FBN01D5PH5'
p690
aS'FLP3FBN01DHSDB'
p691
aS'FLP3FBN01APYG5'
p692
aS'FLP3FBN01EA4TG'
p693
aS'FLP3FBN01BIX4J'
p694
aS'FLP3FBN01A1THR'
p695
aS'FLP3FBN01AMKUE'
p696
aS'FLP3FBN01CKQYM'
p697
aS'FLP3FBN01APRWO'
p698
aS'FLP3FBN01CZUXO'
p699
aS'FLP3FBN01AX4MJ'
p700
aS'FLP3FBN01DUZ3A'
p701
aS'FLP3FBN01DI2NJ'
p702
aS'FLP3FBN01D02CB'
p703
aS'FLP3FBN01DVOX8'
p704
aS'FLP3FBN01C94TW'
p705
aS'FLP3FBN01EHLMD'
p706
aS'FLP3FBN01EDLIV'
p707
aS'FLP3FBN01DSGMM'
p708
aS'FLP3FBN01C4BE2'
p709
aS'FLP3FBN01B5LFD'
p710
aS'FLP3FBN01BXFJH'
p711
aS'FLP3FBN01AO474'
p712
aS'FLP3FBN01D0Z6N'
p713
aS'FLP3FBN01BAT9T'
p714
aS'FLP3FBN01BU6SJ'
p715
aS'FLP3FBN01DR99Q'
p716
aS'FLP3FBN01ELV1R'
p717
aS'FLP3FBN01C62R4'
p718
aS'FLP3FBN01CGNQ7'
p719
aS'FLP3FBN01CEGMP'
p720
aS'FLP3FBN01D1GVB'
p721
asS'FLP3FBN01CX6KS'
p722
(lp723
sS'FLP3FBN01C8AH6'
p724
(lp725
sS'FLP3FBN01DD2LQ'
p726
(lp727
sS'FLP3FBN01DVSSP'
p728
(lp729
sS'FLP3FBN01DVCUY'
p730
(lp731
sS'FLP3FBN01BM4QE'
p732
(lp733
S'FLP3FBN01CO1SB'
p734
aS'FLP3FBN01EAFRV'
p735
aS'FLP3FBN01EON7J'
p736
aS'FLP3FBN01CXUH7'
p737
asS'FLP3FBN01EQVOU'
p738
(lp739
sS'FLP3FBN01CKK5R'
p740
(lp741
sS'FLP3FBN01AMENY'
p742
(lp743
sS'FLP3FBN01DFM2G'
p744
(lp745
sS'FLP3FBN01B0TAP'
p746
(lp747
sS'FLP3FBN01AR65G'
p748
(lp749
sS'FLP3FBN01BC6PA'
p750
(lp751
sS'FLP3FBN01BIK18'
p752
(lp753
sS'FLP3FBN01AL42P'
p754
(lp755
sS'FLP3FBN01D7CTS'
p756
(lp757
sS'FLP3FBN01B5XY2'
p758
(lp759
sS'FLP3FBN01AX3YR'
p760
(lp761
sS'FLP3FBN01A4NV1'
p762
(lp763
sS'FLP3FBN01BW0YB'
p764
(lp765
sS'FLP3FBN01B65YI'
p766
(lp767
sS'FLP3FBN01A5RCL'
p768
(lp769
sS'FLP3FBN01CIWNC'
p770
(lp771
sS'FLP3FBN01A85QC'
p772
(lp773
sS'FLP3FBN01EIDZ1'
p774
(lp775
sS'FLP3FBN01ATU7A'
p776
(lp777
S'FLP3FBN01DTNE9'
p778
aS'FLP3FBN01BJH0F'
p779
aS'FLP3FBN01B2DRT'
p780
aS'FLP3FBN01C170V'
p781
aS'FLP3FBN01CMRIY'
p782
aS'FLP3FBN01C903U'
p783
aS'FLP3FBN01CHB2R'
p784
aS'FLP3FBN01BD9IY'
p785
aS'FLP3FBN01CHCL3'
p786
aS'FLP3FBN01CFKFW'
p787
asS'FLP3FBN01AHH1K'
p788
(lp789
sS'FLP3FBN01D7CGI'
p790
(lp791
sS'FLP3FBN01DRFRX'
p792
(lp793
sS'FLP3FBN01C3YCV'
p794
(lp795
sS'FLP3FBN01AXZN7'
p796
(lp797
sS'FLP3FBN01BXX60'
p798
(lp799
sS'FLP3FBN01A8V8L'
p800
(lp801
sS'FLP3FBN01BSFE9'
p802
(lp803
sS'FLP3FBN01BLVU7'
p804
(lp805
S'FLP3FBN01CS9UE'
p806
asS'FLP3FBN01EIL6N'
p807
(lp808
sS'FLP3FBN01B7KTL'
p809
(lp810
sS'FLP3FBN01DKHEO'
p811
(lp812
sS'FLP3FBN01BZTX6'
p813
(lp814
S'FLP3FBN01BOZTS'
p815
asS'FLP3FBN01AYYJN'
p816
(lp817
sS'FLP3FBN01BB5R9'
p818
(lp819
sS'FLP3FBN01CLS7R'
p820
(lp821
sS'FLP3FBN01EFEUM'
p822
(lp823
sS'FLP3FBN01DJVP5'
p824
(lp825
sS'FLP3FBN01DPEUG'
p826
(lp827
sS'FLP3FBN01AHV2W'
p828
(lp829
sS'FLP3FBN01EETLW'
p830
(lp831
sS'FLP3FBN01EF8RN'
p832
(lp833
sS'FLP3FBN01CIW8K'
p834
(lp835
S'FLP3FBN01DR739'
p836
asS'FLP3FBN01BJOS4'
p837
(lp838
S'FLP3FBN01CNBHT'
p839
aS'FLP3FBN01A38C0'
p840
aS'FLP3FBN01CJJE7'
p841
aS'FLP3FBN01D97XE'
p842
aS'FLP3FBN01D9KO8'
p843
aS'FLP3FBN01BYAA8'
p844
aS'FLP3FBN01C1O95'
p845
aS'FLP3FBN01AL8JX'
p846
aS'FLP3FBN01ETH11'
p847
aS'FLP3FBN01CS0ML'
p848
aS'FLP3FBN01APUP8'
p849
aS'FLP3FBN01CABHI'
p850
aS'FLP3FBN01C2UWD'
p851
asS'FLP3FBN01EDVUS'
p852
(lp853
S'FLP3FBN01DZX6B'
p854
asS'FLP3FBN01EENPI'
p855
(lp856
sS'FLP3FBN01A6YVR'
p857
(lp858
sS'FLP3FBN01DUQQ0'
p859
(lp860
sS'FLP3FBN01B8F4K'
p861
(lp862
sS'FLP3FBN01A9PL2'
p863
(lp864
sS'FLP3FBN01D8L81'
p865
(lp866
sS'FLP3FBN01D8PY9'
p867
(lp868
sS'FLP3FBN01D15YG'
p869
(lp870
sS'FLP3FBN01D86I8'
p871
(lp872
sS'FLP3FBN01B9R0O'
p873
(lp874
sS'FLP3FBN01EDF0K'
p875
(lp876
sS'FLP3FBN01DGFYQ'
p877
(lp878
sS'FLP3FBN01BU1CU'
p879
(lp880
sS'FLP3FBN01D8Y20'
p881
(lp882
sS'FLP3FBN01DD5NY'
p883
(lp884
sS'FLP3FBN01A55LW'
p885
(lp886
sS'FLP3FBN01AJFDA'
p887
(lp888
sS'FLP3FBN01BEC0A'
p889
(lp890
sS'FLP3FBN01B2A3Z'
p891
(lp892
sS'FLP3FBN01A6BZY'
p893
(lp894
sS'FLP3FBN01BFKOF'
p895
(lp896
sS'FLP3FBN01BXZ1T'
p897
(lp898
sS'FLP3FBN01BLL5V'
p899
(lp900
sS'FLP3FBN01DCLZP'
p901
(lp902
sS'FLP3FBN01A9EJ1'
p903
(lp904
sS'FLP3FBN01C9021'
p905
(lp906
sS'FLP3FBN01ARXOA'
p907
(lp908
sS'FLP3FBN01AQPXC'
p909
(lp910
sS'FLP3FBN01B449W'
p911
(lp912
sS'FLP3FBN01EGXD4'
p913
(lp914
sS'FLP3FBN01AYJGP'
p915
(lp916
sS'FLP3FBN01EQJ0R'
p917
(lp918
sS'FLP3FBN01CU37V'
p919
(lp920
sS'FLP3FBN01C11Y6'
p921
(lp922
sS'FLP3FBN01DVZQC'
p923
(lp924
sS'FLP3FBN01AVPQ2'
p925
(lp926
sS'FLP3FBN01A0B3E'
p927
(lp928
sS'FLP3FBN01DEJQB'
p929
(lp930
sS'FLP3FBN01BTBC0'
p931
(lp932
sS'FLP3FBN01AYCPW'
p933
(lp934
sS'FLP3FBN01BKL5B'
p935
(lp936
sS'FLP3FBN01DQSSH'
p937
(lp938
sS'FLP3FBN01CE5R8'
p939
(lp940
sS'FLP3FBN01DR37T'
p941
(lp942
sS'FLP3FBN01C6OIE'
p943
(lp944
S'FLP3FBN01AVTON'
p945
aS'FLP3FBN01EAMCO'
p946
aS'FLP3FBN01AF0HW'
p947
aS'FLP3FBN01BCBOG'
p948
asS'FLP3FBN01DZVEP'
p949
(lp950
sS'FLP3FBN01DI11Q'
p951
(lp952
sS'FLP3FBN01B52I9'
p953
(lp954
S'FLP3FBN01AP4SS'
p955
aS'FLP3FBN01D8ZMU'
p956
aS'FLP3FBN01D28RJ'
p957
aS'FLP3FBN01CVPVO'
p958
aS'FLP3FBN01EKL55'
p959
aS'FLP3FBN01C847I'
p960
aS'FLP3FBN01BC5FW'
p961
aS'FLP3FBN01B03J2'
p962
asS'FLP3FBN01ENO6X'
p963
(lp964
sS'FLP3FBN01AZSFJ'
p965
(lp966
sS'FLP3FBN01D5SZS'
p967
(lp968
S'FLP3FBN01ANGF2'
p969
aS'FLP3FBN01A559N'
p970
aS'FLP3FBN01DC9HR'
p971
aS'FLP3FBN01ASQES'
p972
aS'FLP3FBN01CBDAE'
p973
aS'FLP3FBN01ED1E9'
p974
aS'FLP3FBN01B4PVG'
p975
aS'FLP3FBN01CYE9Z'
p976
aS'FLP3FBN01CXZHC'
p977
aS'FLP3FBN01AOYAO'
p978
aS'FLP3FBN01C9NT9'
p979
aS'FLP3FBN01A24G3'
p980
aS'FLP3FBN01ALY2B'
p981
aS'FLP3FBN01EII4M'
p982
aS'FLP3FBN01BDDUQ'
p983
aS'FLP3FBN01EJKEX'
p984
aS'FLP3FBN01D6BHF'
p985
aS'FLP3FBN01A9328'
p986
aS'FLP3FBN01DSQSF'
p987
aS'FLP3FBN01EV1JR'
p988
aS'FLP3FBN01DA3NU'
p989
aS'FLP3FBN01APRO8'
p990
aS'FLP3FBN01A3EIE'
p991
aS'FLP3FBN01DNVVZ'
p992
aS'FLP3FBN01C9PO9'
p993
asS'FLP3FBN01AJSD6'
p994
(lp995
sS'FLP3FBN01EEXQK'
p996
(lp997
sS'FLP3FBN01D6UF4'
p998
(lp999
S'FLP3FBN01BJ2ZS'
p1000
asS'FLP3FBN01ECWT9'
p1001
(lp1002
S'FLP3FBN01CQDN5'
p1003
asS'FLP3FBN01ERY9Y'
p1004
(lp1005
sS'FLP3FBN01CSQG7'
p1006
(lp1007
S'FLP3FBN01BGT75'
p1008
aS'FLP3FBN01CXKKK'
p1009
aS'FLP3FBN01ER6TY'
p1010
aS'FLP3FBN01COS84'
p1011
aS'FLP3FBN01CKTYU'
p1012
aS'FLP3FBN01A38MX'
p1013
aS'FLP3FBN01DOYEX'
p1014
asS'FLP3FBN01AFUF1'
p1015
(lp1016
S'FLP3FBN01B7I8E'
p1017
asS'FLP3FBN01CK0M3'
p1018
(lp1019
sS'FLP3FBN01BZOEE'
p1020
(lp1021
sS'FLP3FBN01A6MXL'
p1022
(lp1023
sS'FLP3FBN01DP84W'
p1024
(lp1025
sS'FLP3FBN01CN7JX'
p1026
(lp1027
sS'FLP3FBN01C9TUA'
p1028
(lp1029
S'FLP3FBN01CUHT2'
p1030
asS'FLP3FBN01BOAPJ'
p1031
(lp1032
sS'FLP3FBN01CEUV1'
p1033
(lp1034
sS'FLP3FBN01AQFZV'
p1035
(lp1036
S'FLP3FBN01CV26L'
p1037
asS'FLP3FBN01DT1QK'
p1038
(lp1039
sS'FLP3FBN01C45DS'
p1040
(lp1041
sS'FLP3FBN01ES2BT'
p1042
(lp1043
sS'FLP3FBN01DB5I7'
p1044
(lp1045
sS'FLP3FBN01CTRWB'
p1046
(lp1047
sS'FLP3FBN01DEVFX'
p1048
(lp1049
sS'FLP3FBN01AWH2Z'
p1050
(lp1051
sS'FLP3FBN01BN9BB'
p1052
(lp1053
sS'FLP3FBN01CXUVC'
p1054
(lp1055
sS'FLP3FBN01BOTE5'
p1056
(lp1057
sS'FLP3FBN01DI8DL'
p1058
(lp1059
sS'FLP3FBN01COFBD'
p1060
(lp1061
sS'FLP3FBN01A2AJL'
p1062
(lp1063
sS'FLP3FBN01BC3GH'
p1064
(lp1065
S'FLP3FBN01BLTKB'
p1066
aS'FLP3FBN01BRKZB'
p1067
aS'FLP3FBN01DLDHU'
p1068
asS'FLP3FBN01BTP39'
p1069
(lp1070
sS'FLP3FBN01CZ007'
p1071
(lp1072
sS'FLP3FBN01D4CIQ'
p1073
(lp1074
sS'FLP3FBN01EBPW0'
p1075
(lp1076
sS'FLP3FBN01CTMCP'
p1077
(lp1078
sS'FLP3FBN01B3DCW'
p1079
(lp1080
sS'FLP3FBN01EYX93'
p1081
(lp1082
sS'FLP3FBN01CTP94'
p1083
(lp1084
sS'FLP3FBN01C0GMZ'
p1085
(lp1086
sS'FLP3FBN01BVHTK'
p1087
(lp1088
S'FLP3FBN01BDNJS'
p1089
asS'FLP3FBN01ALCMH'
p1090
(lp1091
S'FLP3FBN01A8V4Q'
p1092
aS'FLP3FBN01BJIH7'
p1093
aS'FLP3FBN01CMVBH'
p1094
aS'FLP3FBN01B85QO'
p1095
aS'FLP3FBN01AIWWA'
p1096
aS'FLP3FBN01CP1E3'
p1097
aS'FLP3FBN01CPBZJ'
p1098
aS'FLP3FBN01BLVR2'
p1099
aS'FLP3FBN01DHESU'
p1100
aS'FLP3FBN01AJ5LD'
p1101
aS'FLP3FBN01AJ8QF'
p1102
asS'FLP3FBN01BD6JX'
p1103
(lp1104
sS'FLP3FBN01A0HNZ'
p1105
(lp1106
sS'FLP3FBN01CAKFA'
p1107
(lp1108
S'FLP3FBN01C5M5W'
p1109
aS'FLP3FBN01DY8W5'
p1110
aS'FLP3FBN01CG3KS'
p1111
asS'FLP3FBN01BTIK9'
p1112
(lp1113
sS'FLP3FBN01B0QGX'
p1114
(lp1115
sS'FLP3FBN01DCLBL'
p1116
(lp1117
sS'FLP3FBN01AF9TE'
p1118
(lp1119
sS'FLP3FBN01EFNNG'
p1120
(lp1121
sS'FLP3FBN01A17GS'
p1122
(lp1123
sS'FLP3FBN01C65QI'
p1124
(lp1125
sS'FLP3FBN01C0XC7'
p1126
(lp1127
sS'FLP3FBN01DRBCR'
p1128
(lp1129
sS'FLP3FBN01EB63O'
p1130
(lp1131
sS'FLP3FBN01B438A'
p1132
(lp1133
sS'FLP3FBN01B9JHP'
p1134
(lp1135
sS'FLP3FBN01BKOLX'
p1136
(lp1137
sS'FLP3FBN01BW7BY'
p1138
(lp1139
sS'FLP3FBN01BAWPK'
p1140
(lp1141
sS'FLP3FBN01BX9OT'
p1142
(lp1143
sS'FLP3FBN01D5TAZ'
p1144
(lp1145
sS'FLP3FBN01EV5MZ'
p1146
(lp1147
sS'FLP3FBN01DIARK'
p1148
(lp1149
sS'FLP3FBN01BTOX2'
p1150
(lp1151
sS'FLP3FBN01DMRPA'
p1152
(lp1153
sS'FLP3FBN01BFQFB'
p1154
(lp1155
S'FLP3FBN01AMOUT'
p1156
aS'FLP3FBN01EABFG'
p1157
aS'FLP3FBN01AOLSN'
p1158
aS'FLP3FBN01B2YIQ'
p1159
aS'FLP3FBN01AMKWI'
p1160
aS'FLP3FBN01C82RZ'
p1161
aS'FLP3FBN01AULX0'
p1162
aS'FLP3FBN01ED2R2'
p1163
aS'FLP3FBN01DOAO5'
p1164
asS'FLP3FBN01CHNXI'
p1165
(lp1166
sS'FLP3FBN01AMXMK'
p1167
(lp1168
sS'FLP3FBN01BI23K'
p1169
(lp1170
S'FLP3FBN01DWLJX'
p1171
aS'FLP3FBN01BD3KF'
p1172
aS'FLP3FBN01CMHTY'
p1173
aS'FLP3FBN01DWOHH'
p1174
aS'FLP3FBN01CJ0R3'
p1175
aS'FLP3FBN01DBF9Z'
p1176
asS'FLP3FBN01DKS5K'
p1177
(lp1178
sS'FLP3FBN01DQMD6'
p1179
(lp1180
sS'FLP3FBN01EI5JL'
p1181
(lp1182
sS'FLP3FBN01BBWRU'
p1183
(lp1184
sS'FLP3FBN01CECHO'
p1185
(lp1186
sS'FLP3FBN01DV3TK'
p1187
(lp1188
sS'FLP3FBN01EABDR'
p1189
(lp1190
S'FLP3FBN01EY83L'
p1191
asS'FLP3FBN01A1JXR'
p1192
(lp1193
sS'FLP3FBN01B5GN0'
p1194
(lp1195
sS'FLP3FBN01CFA5S'
p1196
(lp1197
sS'FLP3FBN01A8P22'
p1198
(lp1199
sS'FLP3FBN01A724Q'
p1200
(lp1201
S'FLP3FBN01D5N1L'
p1202
aS'FLP3FBN01CP0TU'
p1203
aS'FLP3FBN01BZ72V'
p1204
aS'FLP3FBN01D069Y'
p1205
aS'FLP3FBN01BF51P'
p1206
aS'FLP3FBN01D7715'
p1207
aS'FLP3FBN01D0XGC'
p1208
aS'FLP3FBN01AJ7M7'
p1209
aS'FLP3FBN01DU3OR'
p1210
aS'FLP3FBN01D87QS'
p1211
aS'FLP3FBN01EVR1U'
p1212
aS'FLP3FBN01DPT2H'
p1213
aS'FLP3FBN01D69SQ'
p1214
aS'FLP3FBN01EFF35'
p1215
aS'FLP3FBN01CN9ZN'
p1216
aS'FLP3FBN01CB8GB'
p1217
aS'FLP3FBN01CUA96'
p1218
aS'FLP3FBN01EYHU5'
p1219
aS'FLP3FBN01B67MI'
p1220
aS'FLP3FBN01C1ONI'
p1221
aS'FLP3FBN01A2KBL'
p1222
aS'FLP3FBN01DQ5NS'
p1223
aS'FLP3FBN01DG439'
p1224
aS'FLP3FBN01BYEMY'
p1225
aS'FLP3FBN01C17R1'
p1226
aS'FLP3FBN01EGB8E'
p1227
aS'FLP3FBN01EM0GU'
p1228
asS'FLP3FBN01DBO5X'
p1229
(lp1230
sS'FLP3FBN01AKJ8H'
p1231
(lp1232
sS'FLP3FBN01A2G7F'
p1233
(lp1234
sS'FLP3FBN01D9E65'
p1235
(lp1236
sS'FLP3FBN01AYSZA'
p1237
(lp1238
sS'FLP3FBN01D0JVY'
p1239
(lp1240
sS'FLP3FBN01DEHK3'
p1241
(lp1242
sS'FLP3FBN01DUUQ8'
p1243
(lp1244
sS'FLP3FBN01A68AG'
p1245
(lp1246
sS'FLP3FBN01D06GF'
p1247
(lp1248
sS'FLP3FBN01CU9QX'
p1249
(lp1250
sS'FLP3FBN01DMOT4'
p1251
(lp1252
S'FLP3FBN01B4Q1P'
p1253
aS'FLP3FBN01A8N1I'
p1254
aS'FLP3FBN01D26CI'
p1255
aS'FLP3FBN01DY2AX'
p1256
aS'FLP3FBN01EGW4M'
p1257
aS'FLP3FBN01BGWL1'
p1258
aS'FLP3FBN01DL2J4'
p1259
aS'FLP3FBN01COR6A'
p1260
aS'FLP3FBN01A6VU8'
p1261
aS'FLP3FBN01EDYEP'
p1262
aS'FLP3FBN01CSGAL'
p1263
aS'FLP3FBN01C03VW'
p1264
asS'FLP3FBN01COOOS'
p1265
(lp1266
S'FLP3FBN01CVZXE'
p1267
aS'FLP3FBN01EDUZ7'
p1268
aS'FLP3FBN01D07UJ'
p1269
aS'FLP3FBN01CWV71'
p1270
aS'FLP3FBN01A1RXA'
p1271
aS'FLP3FBN01B33P1'
p1272
aS'FLP3FBN01D7ZOI'
p1273
aS'FLP3FBN01C9YGU'
p1274
aS'FLP3FBN01BORQ9'
p1275
aS'FLP3FBN01ESMLF'
p1276
aS'FLP3FBN01BHIQC'
p1277
aS'FLP3FBN01AHXU8'
p1278
aS'FLP3FBN01BAZV6'
p1279
aS'FLP3FBN01BCWX5'
p1280
aS'FLP3FBN01DX2PW'
p1281
aS'FLP3FBN01BAL72'
p1282
aS'FLP3FBN01EMTB4'
p1283
aS'FLP3FBN01EK2JX'
p1284
aS'FLP3FBN01BX26A'
p1285
aS'FLP3FBN01D7MLX'
p1286
aS'FLP3FBN01BE4YH'
p1287
aS'FLP3FBN01CL1LE'
p1288
aS'FLP3FBN01C1Q79'
p1289
aS'FLP3FBN01DI8XZ'
p1290
aS'FLP3FBN01DH65L'
p1291
aS'FLP3FBN01B350B'
p1292
asS'FLP3FBN01B0SNX'
p1293
(lp1294
sS'FLP3FBN01BOFGD'
p1295
(lp1296
sS'FLP3FBN01BPX14'
p1297
(lp1298
sS'FLP3FBN01BUKY6'
p1299
(lp1300
sS'FLP3FBN01DSC1C'
p1301
(lp1302
S'FLP3FBN01EPNQQ'
p1303
aS'FLP3FBN01D5ZFA'
p1304
aS'FLP3FBN01D9HWD'
p1305
aS'FLP3FBN01BR8CU'
p1306
aS'FLP3FBN01DXGDW'
p1307
asS'FLP3FBN01BS9WF'
p1308
(lp1309
sS'FLP3FBN01BYGK2'
p1310
(lp1311
sS'FLP3FBN01DQGLV'
p1312
(lp1313
sS'FLP3FBN01DQIRW'
p1314
(lp1315
sS'FLP3FBN01A5TI5'
p1316
(lp1317
sS'FLP3FBN01C667Q'
p1318
(lp1319
sS'FLP3FBN01D32U0'
p1320
(lp1321
S'FLP3FBN01CORWL'
p1322
aS'FLP3FBN01B6F7P'
p1323
aS'FLP3FBN01D9LCY'
p1324
aS'FLP3FBN01EZ4SI'
p1325
aS'FLP3FBN01CCNA1'
p1326
aS'FLP3FBN01DQI3A'
p1327
aS'FLP3FBN01ENPIT'
p1328
aS'FLP3FBN01EVVYX'
p1329
asS'FLP3FBN01CMQ1H'
p1330
(lp1331
sS'FLP3FBN01B7UNT'
p1332
(lp1333
sS'FLP3FBN01C6ISY'
p1334
(lp1335
sS'FLP3FBN01AO1DG'
p1336
(lp1337
sS'FLP3FBN01AY1NE'
p1338
(lp1339
sS'FLP3FBN01DVIVE'
p1340
(lp1341
sS'FLP3FBN01DQS40'
p1342
(lp1343
sS'FLP3FBN01BSMR0'
p1344
(lp1345
sS'FLP3FBN01AF994'
p1346
(lp1347
sS'FLP3FBN01EPSYJ'
p1348
(lp1349
sS'FLP3FBN01A7NE9'
p1350
(lp1351
sS'FLP3FBN01A4SET'
p1352
(lp1353
sS'FLP3FBN01D5KU1'
p1354
(lp1355
sS'FLP3FBN01B03Q3'
p1356
(lp1357
sS'FLP3FBN01B0EIF'
p1358
(lp1359
sS'FLP3FBN01BSTZH'
p1360
(lp1361
sS'FLP3FBN01A6SQ3'
p1362
(lp1363
sS'FLP3FBN01BT0AE'
p1364
(lp1365
sS'FLP3FBN01ERW7M'
p1366
(lp1367
sS'FLP3FBN01DO7JM'
p1368
(lp1369
S'FLP3FBN01DOCE5'
p1370
aS'FLP3FBN01EG5XE'
p1371
aS'FLP3FBN01DHYS5'
p1372
aS'FLP3FBN01D0SFK'
p1373
aS'FLP3FBN01B12IL'
p1374
aS'FLP3FBN01AYGTR'
p1375
aS'FLP3FBN01BPYDP'
p1376
aS'FLP3FBN01AXQ2Z'
p1377
aS'FLP3FBN01D2BCC'
p1378
asS'FLP3FBN01AVA3U'
p1379
(lp1380
sS'FLP3FBN01C645E'
p1381
(lp1382
sS'FLP3FBN01BJO96'
p1383
(lp1384
sS'FLP3FBN01EEA7Q'
p1385
(lp1386
sS'FLP3FBN01DVTEG'
p1387
(lp1388
sS'FLP3FBN01DZ6P8'
p1389
(lp1390
sS'FLP3FBN01DDMH6'
p1391
(lp1392
sS'FLP3FBN01CQO5F'
p1393
(lp1394
sS'FLP3FBN01B1MJU'
p1395
(lp1396
S'FLP3FBN01C7IA4'
p1397
asS'FLP3FBN01AK9OO'
p1398
(lp1399
sS'FLP3FBN01BA44D'
p1400
(lp1401
S'FLP3FBN01B5Z5E'
p1402
aS'FLP3FBN01BCQ7B'
p1403
aS'FLP3FBN01B1OGH'
p1404
aS'FLP3FBN01DM0L1'
p1405
aS'FLP3FBN01C73G0'
p1406
aS'FLP3FBN01BDSR0'
p1407
aS'FLP3FBN01B8WRO'
p1408
aS'FLP3FBN01CLP3T'
p1409
aS'FLP3FBN01BW1QP'
p1410
aS'FLP3FBN01DD801'
p1411
aS'FLP3FBN01CSXJW'
p1412
asS'FLP3FBN01DQR2G'
p1413
(lp1414
S'FLP3FBN01DOR0M'
p1415
asS'FLP3FBN01BVQJR'
p1416
(lp1417
sS'FLP3FBN01CLMSS'
p1418
(lp1419
sS'FLP3FBN01AH4QL'
p1420
(lp1421
sS'FLP3FBN01EZQR8'
p1422
(lp1423
sS'FLP3FBN01CDWQ4'
p1424
(lp1425
sS'FLP3FBN01AS2O8'
p1426
(lp1427
sS'FLP3FBN01CXD3D'
p1428
(lp1429
sS'FLP3FBN01BUMCM'
p1430
(lp1431
sS'FLP3FBN01DQSWF'
p1432
(lp1433
sS'FLP3FBN01CEL0P'
p1434
(lp1435
S'FLP3FBN01CV5ZU'
p1436
aS'FLP3FBN01EAAV0'
p1437
aS'FLP3FBN01CNKON'
p1438
aS'FLP3FBN01DO8MU'
p1439
aS'FLP3FBN01ATR31'
p1440
aS'FLP3FBN01EWW35'
p1441
aS'FLP3FBN01DW7MZ'
p1442
aS'FLP3FBN01AEB9M'
p1443
aS'FLP3FBN01C4N17'
p1444
aS'FLP3FBN01DLTYU'
p1445
aS'FLP3FBN01DF870'
p1446
aS'FLP3FBN01CKH8P'
p1447
aS'FLP3FBN01DTZ2Y'
p1448
aS'FLP3FBN01BTNQ7'
p1449
aS'FLP3FBN01CQ5AB'
p1450
aS'FLP3FBN01D3JOZ'
p1451
aS'FLP3FBN01DEBKQ'
p1452
aS'FLP3FBN01BUCNS'
p1453
aS'FLP3FBN01CO4O9'
p1454
aS'FLP3FBN01EBSVN'
p1455
aS'FLP3FBN01BS5XB'
p1456
aS'FLP3FBN01D4230'
p1457
aS'FLP3FBN01DIYX9'
p1458
asS'FLP3FBN01AM0P3'
p1459
(lp1460
sg0
(lp1461
S'FLP3FBN01D4O1Y'
p1462
aS'FLP3FBN01EHASU'
p1463
asS'FLP3FBN01AEVVE'
p1464
(lp1465
sS'FLP3FBN01BKWR9'
p1466
(lp1467
sS'FLP3FBN01AXR34'
p1468
(lp1469
S'FLP3FBN01DX9GS'
p1470
aS'FLP3FBN01BI664'
p1471
aS'FLP3FBN01DZ0UC'
p1472
aS'FLP3FBN01CXOXZ'
p1473
aS'FLP3FBN01DAS79'
p1474
aS'FLP3FBN01A52PB'
p1475
aS'FLP3FBN01ESUQV'
p1476
aS'FLP3FBN01AP0N3'
p1477
aS'FLP3FBN01CKKP0'
p1478
aS'FLP3FBN01D66OZ'
p1479
asS'FLP3FBN01AMFQA'
p1480
(lp1481
sS'FLP3FBN01DVCKT'
p1482
(lp1483
sS'FLP3FBN01BPHY3'
p1484
(lp1485
sS'FLP3FBN01CJOJP'
p1486
(lp1487
sS'FLP3FBN01COUSC'
p1488
(lp1489
S'FLP3FBN01AQTYD'
p1490
aS'FLP3FBN01DAQ2Q'
p1491
aS'FLP3FBN01A13CQ'
p1492
aS'FLP3FBN01BEAYH'
p1493
aS'FLP3FBN01BBDL9'
p1494
aS'FLP3FBN01D44U7'
p1495
aS'FLP3FBN01CORTK'
p1496
aS'FLP3FBN01ENBFP'
p1497
aS'FLP3FBN01C8P52'
p1498
asS'FLP3FBN01ALS1C'
p1499
(lp1500
sS'FLP3FBN01D7ZG7'
p1501
(lp1502
sS'FLP3FBN01C1PAK'
p1503
(lp1504
sS'FLP3FBN01A95YV'
p1505
(lp1506
sS'FLP3FBN01AMBQN'
p1507
(lp1508
sS'FLP3FBN01AWPFQ'
p1509
(lp1510
sS'FLP3FBN01DE1KU'
p1511
(lp1512
sS'FLP3FBN01CHFB7'
p1513
(lp1514
sS'FLP3FBN01BJH6S'
p1515
(lp1516
sS'FLP3FBN01D8J4C'
p1517
(lp1518
sS'FLP3FBN01CQGY3'
p1519
(lp1520
sS'FLP3FBN01A1YKO'
p1521
(lp1522
sS'FLP3FBN01DB7BE'
p1523
(lp1524
sS'FLP3FBN01ARBPM'
p1525
(lp1526
sS'FLP3FBN01ED2F6'
p1527
(lp1528
sS'FLP3FBN01CJ7ZY'
p1529
(lp1530
sS'FLP3FBN01DR8GQ'
p1531
(lp1532
sS'FLP3FBN01BULUD'
p1533
(lp1534
sS'FLP3FBN01BG5PZ'
p1535
(lp1536
sS'FLP3FBN01DPZMM'
p1537
(lp1538
S'FLP3FBN01BT8QN'
p1539
asS'FLP3FBN01ANQ3B'
p1540
(lp1541
sS'FLP3FBN01ENV4O'
p1542
(lp1543
sS'FLP3FBN01DAUO4'
p1544
(lp1545
sS'FLP3FBN01A3VZS'
p1546
(lp1547
S'FLP3FBN01DMENX'
p1548
aS'FLP3FBN01C64QW'
p1549
asS'FLP3FBN01B9E1U'
p1550
(lp1551
sS'FLP3FBN01BB8KH'
p1552
(lp1553
sS'FLP3FBN01BSEFO'
p1554
(lp1555
sS'FLP3FBN01DI95G'
p1556
(lp1557
sS'FLP3FBN01A55WZ'
p1558
(lp1559
S'FLP3FBN01DLUYP'
p1560
aS'FLP3FBN01DNS9D'
p1561
aS'FLP3FBN01BA22V'
p1562
aS'FLP3FBN01CRC8T'
p1563
aS'FLP3FBN01CZIJ2'
p1564
aS'FLP3FBN01EEO6R'
p1565
aS'FLP3FBN01BI3RV'
p1566
aS'FLP3FBN01BR4U6'
p1567
aS'FLP3FBN01BDJRH'
p1568
aS'FLP3FBN01CF2XK'
p1569
aS'FLP3FBN01CFBG4'
p1570
aS'FLP3FBN01BYYFZ'
p1571
aS'FLP3FBN01CMYHR'
p1572
aS'FLP3FBN01AFDPD'
p1573
aS'FLP3FBN01DR7VU'
p1574
aS'FLP3FBN01BF988'
p1575
aS'FLP3FBN01CRN6U'
p1576
aS'FLP3FBN01A6SLO'
p1577
aS'FLP3FBN01C0173'
p1578
aS'FLP3FBN01D6MDJ'
p1579
aS'FLP3FBN01DSMJS'
p1580
aS'FLP3FBN01B1VVL'
p1581
asS'FLP3FBN01BLIY9'
p1582
(lp1583
sS'FLP3FBN01DXG0S'
p1584
(lp1585
sS'FLP3FBN01AZPBJ'
p1586
(lp1587
sS'FLP3FBN01A2RID'
p1588
(lp1589
sS'FLP3FBN01DRJEK'
p1590
(lp1591
sS'FLP3FBN01DJCPD'
p1592
(lp1593
S'FLP3FBN01A0OWM'
p1594
asS'FLP3FBN01CXUT9'
p1595
(lp1596
sS'FLP3FBN01DD2QI'
p1597
(lp1598
sS'FLP3FBN01ALP0V'
p1599
(lp1600
sS'FLP3FBN01BQL2S'
p1601
(lp1602
S'FLP3FBN01B0AX7'
p1603
asS'FLP3FBN01BDSSU'
p1604
(lp1605
S'FLP3FBN01A8PO2'
p1606
aS'FLP3FBN01DWFUS'
p1607
aS'FLP3FBN01CT7NN'
p1608
aS'FLP3FBN01CFM8N'
p1609
aS'FLP3FBN01EMI0C'
p1610
aS'FLP3FBN01ADKU8'
p1611
aS'FLP3FBN01BBGPO'
p1612
aS'FLP3FBN01BS0JY'
p1613
aS'FLP3FBN01CYQG0'
p1614
aS'FLP3FBN01BLZYI'
p1615
aS'FLP3FBN01C4BE9'
p1616
aS'FLP3FBN01ES3TI'
p1617
aS'FLP3FBN01DTCGT'
p1618
aS'FLP3FBN01B86XL'
p1619
aS'FLP3FBN01D8FO0'
p1620
aS'FLP3FBN01BCTWA'
p1621
aS'FLP3FBN01BOOJJ'
p1622
aS'FLP3FBN01B8NID'
p1623
aS'FLP3FBN01DNL4E'
p1624
aS'FLP3FBN01DVDLD'
p1625
aS'FLP3FBN01D8F9Q'
p1626
aS'FLP3FBN01BKT0E'
p1627
aS'FLP3FBN01D0BE4'
p1628
aS'FLP3FBN01CIA5C'
p1629
aS'FLP3FBN01ARHYF'
p1630
aS'FLP3FBN01D88A5'
p1631
aS'FLP3FBN01CPOTU'
p1632
aS'FLP3FBN01C0GRI'
p1633
asS'FLP3FBN01C4QQE'
p1634
(lp1635
sS'FLP3FBN01D7F5H'
p1636
(lp1637
sS'FLP3FBN01D1IC0'
p1638
(lp1639
sS'FLP3FBN01BIKSR'
p1640
(lp1641
sS'FLP3FBN01EM86A'
p1642
(lp1643
sS'FLP3FBN01BN228'
p1644
(lp1645
sS'FLP3FBN01DQKWR'
p1646
(lp1647
sS'FLP3FBN01EEO8Q'
p1648
(lp1649
sS'FLP3FBN01D79PA'
p1650
(lp1651
sS'FLP3FBN01AKXJC'
p1652
(lp1653
sS'FLP3FBN01DN5MU'
p1654
(lp1655
sS'FLP3FBN01AZ92N'
p1656
(lp1657
S'FLP3FBN01D6H8C'
p1658
aS'FLP3FBN01EDX65'
p1659
aS'FLP3FBN01EOUN6'
p1660
aS'FLP3FBN01D5RTH'
p1661
aS'FLP3FBN01CPKVQ'
p1662
aS'FLP3FBN01CXEBD'
p1663
aS'FLP3FBN01ENY5A'
p1664
aS'FLP3FBN01C6MIF'
p1665
aS'FLP3FBN01EC04T'
p1666
aS'FLP3FBN01BKQF8'
p1667
aS'FLP3FBN01CSORT'
p1668
aS'FLP3FBN01AZK2X'
p1669
asS'FLP3FBN01B1L15'
p1670
(lp1671
sS'FLP3FBN01ET6LV'
p1672
(lp1673
sS'FLP3FBN01DPG83'
p1674
(lp1675
S'FLP3FBN01B82L6'
p1676
aS'FLP3FBN01C77VC'
p1677
aS'FLP3FBN01BWI6J'
p1678
aS'FLP3FBN01AOSD0'
p1679
aS'FLP3FBN01C6I0F'
p1680
aS'FLP3FBN01CEH6T'
p1681
aS'FLP3FBN01A8MZH'
p1682
aS'FLP3FBN01ECGSC'
p1683
aS'FLP3FBN01EDY3K'
p1684
aS'FLP3FBN01A4HWP'
p1685
aS'FLP3FBN01A6R51'
p1686
aS'FLP3FBN01DKJQE'
p1687
aS'FLP3FBN01DECHE'
p1688
aS'FLP3FBN01A2K0Q'
p1689
aS'FLP3FBN01EJ91Q'
p1690
aS'FLP3FBN01ARRYC'
p1691
aS'FLP3FBN01BHOAC'
p1692
aS'FLP3FBN01EV4Z5'
p1693
aS'FLP3FBN01AIAA5'
p1694
asS'FLP3FBN01BVUDC'
p1695
(lp1696
sS'FLP3FBN01EB4D8'
p1697
(lp1698
sS'FLP3FBN01A3LZ0'
p1699
(lp1700
sS'FLP3FBN01BOOHE'
p1701
(lp1702
sS'FLP3FBN01B9SW2'
p1703
(lp1704
sS'FLP3FBN01CPIOY'
p1705
(lp1706
sS'FLP3FBN01DN1Z3'
p1707
(lp1708
sS'FLP3FBN01EEU42'
p1709
(lp1710
S'FLP3FBN01A77ZB'
p1711
aS'FLP3FBN01D6N8J'
p1712
aS'FLP3FBN01B8NKS'
p1713
aS'FLP3FBN01DQ4XV'
p1714
aS'FLP3FBN01C2EP9'
p1715
aS'FLP3FBN01D868W'
p1716
aS'FLP3FBN01AKJ6W'
p1717
aS'FLP3FBN01ECMN2'
p1718
aS'FLP3FBN01B27CZ'
p1719
aS'FLP3FBN01AVACO'
p1720
aS'FLP3FBN01AWUMH'
p1721
aS'FLP3FBN01DQ1LW'
p1722
aS'FLP3FBN01BV86P'
p1723
aS'FLP3FBN01EAT6O'
p1724
aS'FLP3FBN01COXAR'
p1725
aS'FLP3FBN01AYTXJ'
p1726
aS'FLP3FBN01EGUWG'
p1727
aS'FLP3FBN01CMT8N'
p1728
aS'FLP3FBN01DAF3E'
p1729
aS'FLP3FBN01A26LS'
p1730
aS'FLP3FBN01D0219'
p1731
aS'FLP3FBN01AW4PZ'
p1732
aS'FLP3FBN01B1B5Q'
p1733
aS'FLP3FBN01CTU4A'
p1734
aS'FLP3FBN01CWOPF'
p1735
aS'FLP3FBN01ENHOZ'
p1736
aS'FLP3FBN01A68PA'
p1737
aS'FLP3FBN01ACUB7'
p1738
aS'FLP3FBN01CLZRI'
p1739
aS'FLP3FBN01B4V0D'
p1740
aS'FLP3FBN01BTCQ8'
p1741
aS'FLP3FBN01EBLMN'
p1742
aS'FLP3FBN01D81I4'
p1743
aS'FLP3FBN01AF3UI'
p1744
aS'FLP3FBN01EJZ09'
p1745
aS'FLP3FBN01DE016'
p1746
aS'FLP3FBN01ETEMV'
p1747
aS'FLP3FBN01DYMXO'
p1748
aS'FLP3FBN01AKUQT'
p1749
aS'FLP3FBN01CBJWL'
p1750
aS'FLP3FBN01CD97W'
p1751
asS'FLP3FBN01A5XYK'
p1752
(lp1753
sS'FLP3FBN01DU20K'
p1754
(lp1755
sS'FLP3FBN01EKI61'
p1756
(lp1757
sS'FLP3FBN01AEB2N'
p1758
(lp1759
sS'FLP3FBN01D1PPR'
p1760
(lp1761
S'FLP3FBN01B770T'
p1762
asS'FLP3FBN01DATE7'
p1763
(lp1764
sS'FLP3FBN01COSQ8'
p1765
(lp1766
sS'FLP3FBN01BOMSP'
p1767
(lp1768
sS'FLP3FBN01DPNWR'
p1769
(lp1770
S'FLP3FBN01B5KK8'
p1771
aS'FLP3FBN01B8169'
p1772
aS'FLP3FBN01EWA03'
p1773
aS'FLP3FBN01C5F5F'
p1774
aS'FLP3FBN01BJO3F'
p1775
aS'FLP3FBN01CUN6D'
p1776
aS'FLP3FBN01EGX4W'
p1777
aS'FLP3FBN01CIT14'
p1778
aS'FLP3FBN01A2TMU'
p1779
aS'FLP3FBN01EZAZQ'
p1780
aS'FLP3FBN01DYIFI'
p1781
aS'FLP3FBN01EIT5M'
p1782
aS'FLP3FBN01AS674'
p1783
aS'FLP3FBN01C1EUH'
p1784
aS'FLP3FBN01A3YSL'
p1785
aS'FLP3FBN01AXM4C'
p1786
aS'FLP3FBN01ASO4F'
p1787
aS'FLP3FBN01ASXZX'
p1788
asS'FLP3FBN01EOUWL'
p1789
(lp1790
S'FLP3FBN01CP6X7'
p1791
asS'FLP3FBN01BW4TT'
p1792
(lp1793
sS'FLP3FBN01A7TP4'
p1794
(lp1795
sS'FLP3FBN01B8DUH'
p1796
(lp1797
S'FLP3FBN01CSLHO'
p1798
aS'FLP3FBN01APLDI'
p1799
aS'FLP3FBN01AJVO0'
p1800
aS'FLP3FBN01EPSX1'
p1801
aS'FLP3FBN01A449C'
p1802
asS'FLP3FBN01CSPWG'
p1803
(lp1804
S'FLP3FBN01CZHBB'
p1805
aS'FLP3FBN01D37W3'
p1806
aS'FLP3FBN01D82DP'
p1807
aS'FLP3FBN01BE4FD'
p1808
aS'FLP3FBN01C4K5P'
p1809
aS'FLP3FBN01A38B0'
p1810
aS'FLP3FBN01AV5YV'
p1811
aS'FLP3FBN01AGI0O'
p1812
aS'FLP3FBN01CQHPF'
p1813
aS'FLP3FBN01C8VGW'
p1814
aS'FLP3FBN01COYKA'
p1815
aS'FLP3FBN01D0FVD'
p1816
aS'FLP3FBN01BU66X'
p1817
aS'FLP3FBN01D1105'
p1818
aS'FLP3FBN01A8C9C'
p1819
asS'FLP3FBN01D2AYU'
p1820
(lp1821
sS'FLP3FBN01EHQW9'
p1822
(lp1823
sS'FLP3FBN01ARU00'
p1824
(lp1825
sS'FLP3FBN01AJ4LN'
p1826
(lp1827
sS'FLP3FBN01BHKSP'
p1828
(lp1829
S'FLP3FBN01EA91G'
p1830
aS'FLP3FBN01B7E8J'
p1831
aS'FLP3FBN01D0DDK'
p1832
aS'FLP3FBN01D1PYD'
p1833
aS'FLP3FBN01EF1R5'
p1834
aS'FLP3FBN01BTIOW'
p1835
aS'FLP3FBN01AT5GO'
p1836
aS'FLP3FBN01AGMG5'
p1837
aS'FLP3FBN01BPI1O'
p1838
aS'FLP3FBN01DIYZ3'
p1839
aS'FLP3FBN01BSQTU'
p1840
aS'FLP3FBN01DBIH6'
p1841
aS'FLP3FBN01BBP7L'
p1842
aS'FLP3FBN01C68GY'
p1843
aS'FLP3FBN01A18XL'
p1844
aS'FLP3FBN01D3MIZ'
p1845
aS'FLP3FBN01D2E5F'
p1846
aS'FLP3FBN01EEKR5'
p1847
aS'FLP3FBN01CWRA1'
p1848
asS'FLP3FBN01B3PY0'
p1849
(lp1850
sS'FLP3FBN01ASJ6H'
p1851
(lp1852
S'FLP3FBN01DS5AU'
p1853
aS'FLP3FBN01DNQQE'
p1854
aS'FLP3FBN01A7BP1'
p1855
aS'FLP3FBN01DH3EM'
p1856
aS'FLP3FBN01DWFB9'
p1857
aS'FLP3FBN01D1OTA'
p1858
aS'FLP3FBN01CQKDB'
p1859
aS'FLP3FBN01EZ9L3'
p1860
aS'FLP3FBN01B97H8'
p1861
as(dp1862
S'FLP3FBN01C2MYD'
p1863
NsS'FLP3FBN01BN9BB'
p1864
NsS'FLP3FBN01AVPQ2'
p1865
NsS'FLP3FBN01DKS5K'
p1866
NsS'FLP3FBN01A0B3E'
p1867
NsS'FLP3FBN01B2CCU'
p1868
NsS'FLP3FBN01DEJQB'
p1869
NsS'FLP3FBN01BTBC0'
p1870
NsS'FLP3FBN01AYCPW'
p1871
NsS'FLP3FBN01DQMD6'
p1872
NsS'FLP3FBN01BKL5B'
p1873
NsS'FLP3FBN01AJ4LN'
p1874
NsS'FLP3FBN01DJCPD'
p1875
NsS'FLP3FBN01EQVOU'
p1876
NsS'FLP3FBN01CE5R8'
p1877
NsS'FLP3FBN01A0HNZ'
p1878
NsS'FLP3FBN01A2E42'
p1879
NsS'FLP3FBN01DI11Q'
p1880
NsS'FLP3FBN01D5TAZ'
p1881
NsS'FLP3FBN01CHYQT'
p1882
NsS'FLP3FBN01ET99E'
p1883
NsS'FLP3FBN01BKTRL'
p1884
NsS'FLP3FBN01ET7S1'
p1885
NsS'FLP3FBN01D2AYU'
p1886
NsS'FLP3FBN01BSFE9'
p1887
NsS'FLP3FBN01D9E65'
p1888
NsS'FLP3FBN01B06QS'
p1889
NsS'FLP3FBN01BZ1F6'
p1890
NsS'FLP3FBN01D8J4C'
p1891
NsS'FLP3FBN01DVAA4'
p1892
NsS'FLP3FBN01B2A3Z'
p1893
NsS'FLP3FBN01EEXQK'
p1894
NsS'FLP3FBN01B9SW2'
p1895
NsS'FLP3FBN01BB8KH'
p1896
NsS'FLP3FBN01ATZTQ'
p1897
NsS'FLP3FBN01D6UF4'
p1898
NsS'FLP3FBN01ECWT9'
p1899
NsS'FLP3FBN01DN1Z3'
p1900
NsS'FLP3FBN01AFUF1'
p1901
NsS'FLP3FBN01A44HD'
p1902
NsS'FLP3FBN01CHNXI'
p1903
NsS'FLP3FBN01B4KSX'
p1904
NsS'FLP3FBN01C4VM7'
p1905
NsS'FLP3FBN01D9QTP'
p1906
NsS'FLP3FBN01BF0UO'
p1907
NsS'FLP3FBN01CXUT9'
p1908
NsS'FLP3FBN01DR37T'
p1909
NsS'FLP3FBN01ETLIN'
p1910
NsS'FLP3FBN01AOR4O'
p1911
NsS'FLP3FBN01DVF2L'
p1912
NsS'FLP3FBN01BO4IE'
p1913
NsS'FLP3FBN01A6MXL'
p1914
NsS'FLP3FBN01CN7JX'
p1915
NsS'FLP3FBN01EHQW9'
p1916
NsS'FLP3FBN01BOAPJ'
p1917
NsS'FLP3FBN01AK9WE'
p1918
NsS'FLP3FBN01DRS0G'
p1919
NsS'FLP3FBN01EF15V'
p1920
NsS'FLP3FBN01DT1QK'
p1921
NsS'FLP3FBN01A5RCL'
p1922
NsS'FLP3FBN01AP7UV'
p1923
NsS'FLP3FBN01AIDK4'
p1924
NsS'FLP3FBN01DYJU9'
p1925
NsS'FLP3FBN01ALCR0'
p1926
NsS'FLP3FBN01BE65F'
p1927
NsS'FLP3FBN01BSTU3'
p1928
NsS'FLP3FBN01C45DS'
p1929
NsS'FLP3FBN01DFQEI'
p1930
NsS'FLP3FBN01ES2BT'
p1931
NsS'FLP3FBN01CXUVC'
p1932
NsS'FLP3FBN01EDWJK'
p1933
NsS'FLP3FBN01DB5I7'
p1934
NsS'FLP3FBN01A5MND'
p1935
NsS'FLP3FBN01CTRWB'
p1936
NsS'FLP3FBN01EFG5X'
p1937
NsS'FLP3FBN01D6990'
p1938
NsS'FLP3FBN01DVTZC'
p1939
NsS'FLP3FBN01CSQSY'
p1940
NsS'FLP3FBN01B9U1E'
p1941
NsS'FLP3FBN01EFIS6'
p1942
NsS'FLP3FBN01ENO6X'
p1943
NsS'FLP3FBN01BOTE5'
p1944
NsS'FLP3FBN01ERY9Y'
p1945
NsS'FLP3FBN01COFBD'
p1946
NsS'FLP3FBN01CKTVO'
p1947
NsS'FLP3FBN01DMBQY'
p1948
NsS'FLP3FBN01C6H6I'
p1949
NsS'FLP3FBN01B9O3L'
p1950
NsS'FLP3FBN01A2AJL'
p1951
NsS'FLP3FBN01AMFGP'
p1952
NsS'FLP3FBN01D1PPR'
p1953
NsS'FLP3FBN01EPSYJ'
p1954
NsS'FLP3FBN01B438A'
p1955
NsS'FLP3FBN01BSTZH'
p1956
NsS'FLP3FBN01BTP39'
p1957
NsS'FLP3FBN01CPEDQ'
p1958
NsS'FLP3FBN01CZ007'
p1959
NsS'FLP3FBN01D4CIQ'
p1960
NsS'FLP3FBN01EBPW0'
p1961
NsS'FLP3FBN01CTMCP'
p1962
NsS'FLP3FBN01BTOX2'
p1963
NsS'FLP3FBN01B3DCW'
p1964
NsS'FLP3FBN01ELE68'
p1965
NsS'FLP3FBN01CEU1Z'
p1966
NsS'FLP3FBN01DF6XB'
p1967
NsS'FLP3FBN01BGEG7'
p1968
NsS'FLP3FBN01EABDR'
p1969
NsS'FLP3FBN01DUUQ8'
p1970
NsS'FLP3FBN01CURUA'
p1971
NsS'FLP3FBN01CTP94'
p1972
NsS'FLP3FBN01DT66J'
p1973
NsS'FLP3FBN01BVHTK'
p1974
NsS'FLP3FBN01EN0R5'
p1975
NsS'FLP3FBN01AZSFJ'
p1976
NsS'FLP3FBN01BD6JX'
p1977
NsS'FLP3FBN01ERW7M'
p1978
NsS'FLP3FBN01A9OKC'
p1979
NsS'FLP3FBN01BMLLI'
p1980
NsS'FLP3FBN01DN5MU'
p1981
NsS'FLP3FBN01BTIK9'
p1982
NsS'FLP3FBN01B0QGX'
p1983
NsS'FLP3FBN01DCLBL'
p1984
NsS'FLP3FBN01DQS40'
p1985
NsS'FLP3FBN01CPQSL'
p1986
NsS'FLP3FBN01C7M7W'
p1987
NsS'FLP3FBN01EC56I'
p1988
NsS'FLP3FBN01DO0PN'
p1989
NsS'FLP3FBN01BAJ58'
p1990
NsS'FLP3FBN01AMRRA'
p1991
NsS'FLP3FBN01DATE7'
p1992
NsS'FLP3FBN01A17GS'
p1993
NsS'FLP3FBN01C65QI'
p1994
NsS'FLP3FBN01AWPFQ'
p1995
NsS'FLP3FBN01C0XC7'
p1996
NsS'FLP3FBN01CHYG5'
p1997
NsS'FLP3FBN01EYX93'
p1998
NsS'FLP3FBN01D7O1S'
p1999
NsS'FLP3FBN01DFM2G'
p2000
NsS'FLP3FBN01A3YNV'
p2001
NsS'FLP3FBN01DM0XL'
p2002
NsS'FLP3FBN01EB63O'
p2003
NsS'FLP3FBN01EUT65'
p2004
NsS'FLP3FBN01AZPBJ'
p2005
NsS'FLP3FBN01A1UPS'
p2006
NsS'FLP3FBN01CUD3O'
p2007
NsS'FLP3FBN01A4SET'
p2008
NsS'FLP3FBN01BI3Q6'
p2009
NsS'FLP3FBN01DQR2G'
p2010
NsS'FLP3FBN01BVUDC'
p2011
NsS'FLP3FBN01AZ93K'
p2012
NsS'FLP3FBN01C645E'
p2013
NsS'FLP3FBN01DPZMM'
p2014
NsS'FLP3FBN01EE1C3'
p2015
NsS'FLP3FBN01AJ4R9'
p2016
NsS'FLP3FBN01AKXJC'
p2017
NsS'FLP3FBN01B6YON'
p2018
NsS'FLP3FBN01A1JXR'
p2019
NsS'FLP3FBN01BDPN5'
p2020
NsS'FLP3FBN01COSQ8'
p2021
NsS'FLP3FBN01DHLY4'
p2022
NsS'FLP3FBN01D79PA'
p2023
NsS'FLP3FBN01DR3RW'
p2024
NsS'FLP3FBN01EV5MZ'
p2025
NsS'FLP3FBN01DIARK'
p2026
NsS'FLP3FBN01DMRPA'
p2027
NsS'FLP3FBN01DQSWF'
p2028
NsS'FLP3FBN01EOJO5'
p2029
NsS'FLP3FBN01EIL6N'
p2030
NsS'FLP3FBN01DZNIH'
p2031
NsS'FLP3FBN01AMXMK'
p2032
NsS'FLP3FBN01C9TUA'
p2033
NsS'FLP3FBN01ALS1C'
p2034
NsS'FLP3FBN01EEA7Q'
p2035
NsS'FLP3FBN01CJ7ZY'
p2036
NsS'FLP3FBN01ED2F6'
p2037
NsS'FLP3FBN01A8V8L'
p2038
NsS'FLP3FBN01EI5JL'
p2039
NsS'FLP3FBN01CECHO'
p2040
NsS'FLP3FBN01CR7MF'
p2041
NsS'FLP3FBN01AKD0L'
p2042
NsS'FLP3FBN01DTYVK'
p2043
NsS'FLP3FBN01DZVEP'
p2044
NsS'FLP3FBN01BW7BY'
p2045
NsS'FLP3FBN01CPIOY'
p2046
NsS'FLP3FBN01CFA5S'
p2047
NsS'FLP3FBN01C1F87'
p2048
NsS'FLP3FBN01CSZZD'
p2049
NsS'FLP3FBN01ARODF'
p2050
NsS'FLP3FBN01AUBJF'
p2051
NsS'FLP3FBN01CLMSS'
p2052
NsS'FLP3FBN01BWI9J'
p2053
NsS'FLP3FBN01BJE5P'
p2054
NsS'FLP3FBN01BVAH3'
p2055
NsS'FLP3FBN01ANKI1'
p2056
NsS'FLP3FBN01A2G7F'
p2057
NsS'FLP3FBN01DJ1EH'
p2058
NsS'FLP3FBN01D0JVY'
p2059
NsS'FLP3FBN01BW42C'
p2060
NsS'FLP3FBN01CWQIO'
p2061
NsS'FLP3FBN01DEHK3'
p2062
NsS'FLP3FBN01D8VJ6'
p2063
NsS'FLP3FBN01CEUV1'
p2064
NsS'FLP3FBN01EAC1O'
p2065
NsS'FLP3FBN01DI95G'
p2066
NsS'FLP3FBN01ALP0V'
p2067
NsS'FLP3FBN01C1PP4'
p2068
NsS'FLP3FBN01CU9QX'
p2069
NsS'FLP3FBN01A6KUH'
p2070
NsS'FLP3FBN01D5Y47'
p2071
NsS'FLP3FBN01A1FYD'
p2072
NsS'FLP3FBN01B4E5A'
p2073
NsS'FLP3FBN01B5DKJ'
p2074
NsS'FLP3FBN01ELYL8'
p2075
NsS'FLP3FBN01C1ALJ'
p2076
NsS'FLP3FBN01DBO5X'
p2077
NsS'FLP3FBN01CK0M3'
p2078
NsS'FLP3FBN01BPX14'
p2079
NsS'FLP3FBN01CLMTS'
p2080
NsS'FLP3FBN01BYVGX'
p2081
NsS'FLP3FBN01DZ97Y'
p2082
NsS'FLP3FBN01BS9WF'
p2083
NsS'FLP3FBN01DI8DL'
p2084
NsS'FLP3FBN01D0IW2'
p2085
NsS'FLP3FBN01CAN8M'
p2086
NsS'FLP3FBN01CEUYF'
p2087
NsS'FLP3FBN01ANQ3B'
p2088
NsS'FLP3FBN01APXMT'
p2089
NsS'FLP3FBN01DQIRW'
p2090
NsS'FLP3FBN01CAOAX'
p2091
NsS'FLP3FBN01C667Q'
p2092
NsS'FLP3FBN01BZNMV'
p2093
NsS'FLP3FBN01CDWQ4'
p2094
NsS'FLP3FBN01CMQ1H'
p2095
NsS'FLP3FBN01CJOJP'
p2096
NsS'FLP3FBN01B7UNT'
p2097
NsS'FLP3FBN01DJY30'
p2098
NsS'FLP3FBN01CGYKR'
p2099
NsS'FLP3FBN01ARTG1'
p2100
NsS'FLP3FBN01AOU7Q'
p2101
NsS'FLP3FBN01AO1DG'
p2102
NsS'FLP3FBN01C3PFP'
p2103
NsS'FLP3FBN01AYGA0'
p2104
NsS'FLP3FBN01B3PY0'
p2105
NsS'FLP3FBN01BSMR0'
p2106
NsS'FLP3FBN01AF994'
p2107
NsS'FLP3FBN01AK9OO'
p2108
NsS'FLP3FBN01A7NE9'
p2109
NsS'FLP3FBN01BA934'
p2110
NsS'FLP3FBN01D5KU1'
p2111
NsS'FLP3FBN01C44O7'
p2112
NsS'FLP3FBN01DGRID'
p2113
NsS'FLP3FBN01DQGLV'
p2114
NsS'FLP3FBN01DYX26'
p2115
NsS'FLP3FBN01D2DVT'
p2116
NsS'FLP3FBN01CK4EX'
p2117
NsS'FLP3FBN01AW01I'
p2118
NsS'FLP3FBN01A6SQ3'
p2119
NsS'FLP3FBN01BT0AE'
p2120
NsS'FLP3FBN01B4FWO'
p2121
NsS'FLP3FBN01AER1M'
p2122
NsS'FLP3FBN01AVA3U'
p2123
NsS'FLP3FBN01B6DNW'
p2124
NsS'FLP3FBN01BXZ1T'
p2125
NsS'FLP3FBN01D3QET'
p2126
NsS'FLP3FBN01ADKEK'
p2127
NsS'FLP3FBN01DD2LQ'
p2128
NsS'FLP3FBN01AR785'
p2129
NsS'FLP3FBN01DVTEG'
p2130
NsS'FLP3FBN01DZ6P8'
p2131
NsS'FLP3FBN01BZK6L'
p2132
NsS'FLP3FBN01CQO5F'
p2133
NsS'FLP3FBN01DQFJG'
p2134
NsS'FLP3FBN01AMBQN'
p2135
NsS'FLP3FBN01B1MJU'
p2136
NsS'FLP3FBN01DKURH'
p2137
NsS'FLP3FBN01BAWOL'
p2138
NsS'FLP3FBN01AY1NE'
p2139
NsS'FLP3FBN01A68AG'
p2140
NsS'FLP3FBN01DH3NR'
p2141
NsS'FLP3FBN01BWF4P'
p2142
NsS'FLP3FBN01AT6OD'
p2143
NsS'FLP3FBN01BAWPK'
p2144
NsS'FLP3FBN01BVGJF'
p2145
NsS'FLP3FBN01CDJ70'
p2146
NsS'FLP3FBN01BVQJR'
p2147
NsS'FLP3FBN01A8P22'
p2148
NsS'FLP3FBN01AYSZA'
p2149
NsS'FLP3FBN01BW4TT'
p2150
NsS'FLP3FBN01A6BZY'
p2151
NsS'FLP3FBN01EZQR8'
p2152
NsS'FLP3FBN01B1L15'
p2153
NsS'FLP3FBN01CUX8S'
p2154
NsS'FLP3FBN01AS2O8'
p2155
NsS'FLP3FBN01CSRAJ'
p2156
NsS'FLP3FBN01CXD3D'
p2157
NsS'FLP3FBN01CNT1Q'
p2158
NsS'FLP3FBN01AX3YR'
p2159
NsS'FLP3FBN01EFNNG'
p2160
NsS'FLP3FBN01AM0P3'
p2161
NsS'FLP3FBN01DSRTP'
p2162
NsS'FLP3FBN01A7TP4'
p2163
NsS'FLP3FBN01AEVVE'
p2164
NsS'FLP3FBN01BKWR9'
p2165
NsS'FLP3FBN01D4OI7'
p2166
NsS'FLP3FBN01CD50B'
p2167
NsS'FLP3FBN01AMFQA'
p2168
NsS'FLP3FBN01BYGK2'
p2169
NsS'FLP3FBN01DVCKT'
p2170
NsS'FLP3FBN01DU20K'
p2171
NsS'FLP3FBN01DQMNE'
p2172
NsS'FLP3FBN01BPHY3'
p2173
NsS'FLP3FBN01A0XKK'
p2174
NsS'FLP3FBN01EKZQ1'
p2175
NsS'FLP3FBN01AWH2Z'
p2176
NsS'FLP3FBN01DQGNZ'
p2177
NsS'FLP3FBN01DV3TK'
p2178
NsS'FLP3FBN01B54IG'
p2179
NsS'FLP3FBN01A6FDX'
p2180
NsS'FLP3FBN01C1PAK'
p2181
NsS'FLP3FBN01BZOEE'
p2182
NsS'FLP3FBN01A95YV'
p2183
NsS'FLP3FBN01DDMH6'
p2184
NsS'FLP3FBN01CHFB7'
p2185
NsS'FLP3FBN01DHOF4'
p2186
NsS'FLP3FBN01CX6KS'
p2187
NsS'FLP3FBN01C8AH6'
p2188
NsS'FLP3FBN01DP84W'
p2189
NsS'FLP3FBN01DE1KU'
p2190
NsS'FLP3FBN01ELLAQ'
p2191
NsS'FLP3FBN01DVSSP'
p2192
NsS'FLP3FBN01DVCUY'
p2193
NsS'FLP3FBN01B0SNX'
p2194
NsS'FLP3FBN01BJH6S'
p2195
NsS'FLP3FBN01AFERM'
p2196
NsS'FLP3FBN01BOFGD'
p2197
NsS'FLP3FBN01CKK5R'
p2198
NsS'FLP3FBN01B8KLV'
p2199
NsS'FLP3FBN01B5GN0'
p2200
NsS'FLP3FBN01AMENY'
p2201
NsS'FLP3FBN01C6ISY'
p2202
NsS'FLP3FBN01D6TCI'
p2203
NsS'FLP3FBN01A1YKO'
p2204
NsS'FLP3FBN01ECTYY'
p2205
NsS'FLP3FBN01B0TAP'
p2206
NsS'FLP3FBN01AF9TE'
p2207
NsS'FLP3FBN01B0EIF'
p2208
NsS'FLP3FBN01ARBPM'
p2209
NsS'FLP3FBN01BOMSP'
p2210
NsS'FLP3FBN01DBC7G'
p2211
NsS'FLP3FBN01DB7BE'
p2212
NsS'FLP3FBN01AQFZV'
p2213
NsS'FLP3FBN01CQGY3'
p2214
NsS'FLP3FBN01BBWRU'
p2215
NsS'FLP3FBN01DR8GQ'
p2216
NsS'FLP3FBN01BULUD'
p2217
NsS'FLP3FBN01AR65G'
p2218
NsS'FLP3FBN01BG5PZ'
p2219
NsS'FLP3FBN01DRBCR'
p2220
NsS'FLP3FBN01ENY6F'
p2221
NsS'FLP3FBN01BC6PA'
p2222
NsS'FLP3FBN01BUKY6'
p2223
NsS'FLP3FBN01ENV4O'
p2224
NsS'FLP3FBN01A3VZS'
p2225
NsS'FLP3FBN01BUMCM'
p2226
NsS'FLP3FBN01BIK18'
p2227
NsS'FLP3FBN01B9E1U'
p2228
NsS'FLP3FBN01AL42P'
p2229
NsS'FLP3FBN01D7CTS'
p2230
NsS'FLP3FBN01B5XY2'
p2231
NsS'FLP3FBN01BSEFO'
p2232
NsS'FLP3FBN01A4NV1'
p2233
NsS'FLP3FBN01BW0YB'
p2234
NsS'FLP3FBN01B65YI'
p2235
NsS'FLP3FBN01AHH1K'
p2236
NsS'FLP3FBN01D55K5'
p2237
NsS'FLP3FBN01BLIY9'
p2238
NsS'FLP3FBN01CIWNC'
p2239
NsS'FLP3FBN01A2RID'
p2240
NsS'FLP3FBN01DXG0S'
p2241
NsS'FLP3FBN01EEO8Q'
p2242
NsS'FLP3FBN01A85QC'
p2243
NsS'FLP3FBN01DQKWR'
p2244
NsS'FLP3FBN01EIDZ1'
p2245
NsS'FLP3FBN01D7CGI'
p2246
NsS'FLP3FBN01DRFRX'
p2247
NsS'FLP3FBN01AKJ8H'
p2248
NsS'FLP3FBN01DVIVE'
p2249
NsS'FLP3FBN01C3YCV'
p2250
NsS'FLP3FBN01AXZN7'
p2251
NsS'FLP3FBN01AYYJN'
p2252
NsS'FLP3FBN01BXX60'
p2253
NsS'FLP3FBN01EETLW'
p2254
NsS'FLP3FBN01BQL2S'
p2255
NsS'FLP3FBN01D8Y20'
p2256
NsS'FLP3FBN01A55LW'
p2257
NsS'FLP3FBN01D7ZG7'
p2258
NsS'FLP3FBN01B449W'
p2259
NsS'FLP3FBN01B7KTL'
p2260
NsS'FLP3FBN01DKHEO'
p2261
NsS'FLP3FBN01BZTX6'
p2262
NsS'FLP3FBN01EM86A'
p2263
NsS'FLP3FBN01BB5R9'
p2264
NsS'FLP3FBN01CLS7R'
p2265
NsS'FLP3FBN01EFEUM'
p2266
NsS'FLP3FBN01DJVP5'
p2267
NsS'FLP3FBN01DPEUG'
p2268
NsS'FLP3FBN01AJSD6'
p2269
NsS'FLP3FBN01AHV2W'
p2270
NsS'FLP3FBN01A5TI5'
p2271
NsS'FLP3FBN01AGO5G'
p2272
NsS'FLP3FBN01EF8RN'
p2273
NsS'FLP3FBN01CIW8K'
p2274
NsS'FLP3FBN01B9JHP'
p2275
NsS'FLP3FBN01EDVUS'
p2276
NsS'FLP3FBN01EENPI'
p2277
NsS'FLP3FBN01A6YVR'
p2278
NsS'FLP3FBN01BKOLX'
p2279
NsS'FLP3FBN01DUQQ0'
p2280
NsS'FLP3FBN01B8F4K'
p2281
NsS'FLP3FBN01A9PL2'
p2282
NsS'FLP3FBN01D8L81'
p2283
NsS'FLP3FBN01D8PY9'
p2284
NsS'FLP3FBN01BN228'
p2285
NsS'FLP3FBN01D15YG'
p2286
NsS'FLP3FBN01D86I8'
p2287
NsS'FLP3FBN01ET6LV'
p2288
NsS'FLP3FBN01BLVU7'
p2289
NsS'FLP3FBN01A3LZ0'
p2290
NsS'FLP3FBN01BOOHE'
p2291
NsS'FLP3FBN01EDF0K'
p2292
NsS'FLP3FBN01DGFYQ'
p2293
NsS'FLP3FBN01DQSSH'
p2294
NsS'FLP3FBN01BU1CU'
p2295
NsS'FLP3FBN01DD5NY'
p2296
NsS'FLP3FBN01BQAKZ'
p2297
NsS'FLP3FBN01C4QQE'
p2298
NsS'FLP3FBN01AYADU'
p2299
NsS'FLP3FBN01AJFDA'
p2300
NsS'FLP3FBN01A5XYK'
p2301
NsS'FLP3FBN01BX9OT'
p2302
NsS'FLP3FBN01BEC0A'
p2303
NsS'FLP3FBN01BJO96'
p2304
NsS'FLP3FBN01EKI61'
p2305
NsS'FLP3FBN01AH4QL'
p2306
NsS'FLP3FBN01AEB2N'
p2307
NsS'FLP3FBN01BFKOF'
p2308
NsS'FLP3FBN01D06GF'
p2309
NsS'FLP3FBN01D9ANJ'
p2310
NsS'FLP3FBN01DD2QI'
p2311
NsS'FLP3FBN01BLL5V'
p2312
NsS'FLP3FBN01DCLZP'
p2313
NsS'FLP3FBN01A9EJ1'
p2314
NsS'FLP3FBN01C9021'
p2315
NsS'FLP3FBN01ARXOA'
p2316
NsS'FLP3FBN01DAUO4'
p2317
NsS'FLP3FBN01EOUWL'
p2318
NsS'FLP3FBN01AQPXC'
p2319
NsS'FLP3FBN01B03Q3'
p2320
NsS'FLP3FBN01CU37V'
p2321
NsS'FLP3FBN01DRJEK'
p2322
NsS'FLP3FBN01BIKSR'
p2323
NsS'FLP3FBN01BD8E7'
p2324
NsS'FLP3FBN01C0GMZ'
p2325
NsS'FLP3FBN01EGXD4'
p2326
NsS'FLP3FBN01AYJGP'
p2327
NsS'FLP3FBN01D7F5H'
p2328
NsS'FLP3FBN01EB4D8'
p2329
NsS'FLP3FBN01ARU00'
p2330
NsS'FLP3FBN01D1IC0'
p2331
NsS'FLP3FBN01EQJ0R'
p2332
NsS'FLP3FBN01EAKES'
p2333
NsS'FLP3FBN01DEVFX'
p2334
NsS'FLP3FBN01B9R0O'
p2335
NsS'FLP3FBN01C11Y6'
p2336
NsS'FLP3FBN01DVZQC'
p2337
Ns(dp2338
S'FLP3FBN01C2MYD'
p2339
(g483
F3.7910767
tp2340
sS'FLP3FBN01B2CCU'
p2341
(g1301
F5.453086
tp2342
sS'FLP3FBN01DJCPD'
p2343
(g1674
F4.772891
tp2344
sS'FLP3FBN01A2E42'
p2345
(g537
F4.6573396
tp2346
sS'FLP3FBN01CHYQT'
p2347
(g1251
F4.24921
tp2348
sS'FLP3FBN01ET99E'
p2349
(g1200
F4.137253
tp2350
sS'FLP3FBN01BKTRL'
p2351
(g225
F5.917375
tp2352
sS'FLP3FBN01ET7S1'
p2353
(g1368
F4.765122
tp2354
sS'FLP3FBN01B06QS'
p2355
(g1154
F4.279667
tp2356
sS'FLP3FBN01DVAA4'
p2357
(g1828
F4.02253
tp2358
sS'FLP3FBN01ATZTQ'
p2359
(g1301
F4.9563894
tp2360
sS'FLP3FBN01DZNIH'
p2361
(g483
F4.023401
tp2362
sS'FLP3FBN01A44HD'
p2363
(g483
F4.3913174
tp2364
sS'FLP3FBN01B4KSX'
p2365
(g67
F4.286989
tp2366
sS'FLP3FBN01C4VM7'
p2367
(g293
F4.2003965
tp2368
sS'FLP3FBN01D9QTP'
p2369
(g1828
F3.765855
tp2370
sS'FLP3FBN01BF0UO'
p2371
(g1468
F4.9347615
tp2372
sS'FLP3FBN01EFEUM'
p2373
(g1769
F4.1546345
tp2374
sS'FLP3FBN01ETLIN'
p2375
(g1434
F5.143848
tp2376
sS'FLP3FBN01AOR4O'
p2377
(g1796
F4.220339
tp2378
sS'FLP3FBN01DVF2L'
p2379
(g1604
F5.0008774
tp2380
sS'FLP3FBN01BO4IE'
p2381
(g1107
F4.3981853
tp2382
sS'FLP3FBN01DAUO4'
p2383
(g1368
F4.3359785
tp2384
sS'FLP3FBN01BKL5B'
p2385
(g967
F3.913312
tp2386
sS'FLP3FBN01AK9WE'
p2387
(g1488
F4.0229077
tp2388
sS'FLP3FBN01DRS0G'
p2389
(g1368
F4.312405
tp2390
sS'FLP3FBN01EF15V'
p2391
(g732
F5.636008
tp2392
sS'FLP3FBN01AP7UV'
p2393
(g293
F4.252768
tp2394
sS'FLP3FBN01BPHY3'
p2395
(g293
F4.302782
tp2396
sS'FLP3FBN01DYJU9'
p2397
(g483
F3.9327388
tp2398
sS'FLP3FBN01ALCR0'
p2399
(g293
F4.439824
tp2400
sS'FLP3FBN01BE65F'
p2401
(g345
F4.436994
tp2402
sS'FLP3FBN01BSTU3'
p2403
(g1368
F4.9337673
tp2404
sS'FLP3FBN01DFQEI'
p2405
(g1064
F5.736731
tp2406
sS'FLP3FBN01A5MND'
p2407
(g1604
F3.9567566
tp2408
sS'FLP3FBN01EFG5X'
p2409
(g1796
F4.9121094
tp2410
sS'FLP3FBN01D6990'
p2411
(g537
F4.0994844
tp2412
sS'FLP3FBN01DVTZC'
p2413
(g1368
F3.859348
tp2414
sS'FLP3FBN01CSQSY'
p2415
(g1107
F4.816099
tp2416
sS'FLP3FBN01CJ7ZY'
p2417
(g1368
F4.4591374
tp2418
sS'FLP3FBN01ENO6X'
p2419
(g1200
F3.8856196
tp2420
sS'FLP3FBN01CKTVO'
p2421
(g378
F5.464575
tp2422
sS'FLP3FBN01C6H6I'
p2423
(g1368
F4.4167814
tp2424
sS'FLP3FBN01B9O3L'
p2425
(g1368
F5.0333066
tp2426
sS'FLP3FBN01AMFGP'
p2427
(g1796
F3.9733887
tp2428
sS'FLP3FBN01CPEDQ'
p2429
(g319
F5.8106346
tp2430
sS'FLP3FBN01ELE68'
p2431
(g1604
F5.2604156
tp2432
sS'FLP3FBN01CEU1Z'
p2433
(g1368
F4.7785516
tp2434
sS'FLP3FBN01DF6XB'
p2435
(g1251
F3.7683828
tp2436
sS'FLP3FBN01BGEG7'
p2437
(g1674
F4.615476
tp2438
sS'FLP3FBN01EABDR'
p2439
(g1709
F4.142011
tp2440
sS'FLP3FBN01DT66J'
p2441
(g1368
F5.05342
tp2442
sS'FLP3FBN01EN0R5'
p2443
(g10
F4.027329
tp2444
sS'FLP3FBN01A9OKC'
p2445
(g1200
F3.9943492
tp2446
sS'FLP3FBN01BMLLI'
p2447
(g1064
F5.58506
tp2448
sS'FLP3FBN01CPQSL'
p2449
(g1107
F4.802927
tp2450
sS'FLP3FBN01C7M7W'
p2451
(g319
F4.7306576
tp2452
sS'FLP3FBN01EC56I'
p2453
(g1200
F4.218575
tp2454
sS'FLP3FBN01BAJ58'
p2455
(g1200
F5.690851
tp2456
sS'FLP3FBN01AMRRA'
p2457
(g1368
F4.1566305
tp2458
sS'FLP3FBN01CHYG5'
p2459
(g1064
F4.1479287
tp2460
sS'FLP3FBN01D7O1S'
p2461
(g92
F4.4541287
tp2462
sS'FLP3FBN01DFM2G'
p2463
(g483
F3.883103
tp2464
sS'FLP3FBN01A3YNV'
p2465
(g293
F4.8212085
tp2466
sS'FLP3FBN01DM0XL'
p2467
(g345
F5.9583545
tp2468
sS'FLP3FBN01EUT65'
p2469
(g1709
F4.555887
tp2470
sS'FLP3FBN01AZPBJ'
p2471
(g1200
F4.0019903
tp2472
sS'FLP3FBN01A1UPS'
p2473
(g67
F5.5311832
tp2474
sS'FLP3FBN01CUD3O'
p2475
(g1200
F4.633628
tp2476
sS'FLP3FBN01BI3Q6'
p2477
(g1368
F4.3020754
tp2478
sS'FLP3FBN01B5DKJ'
p2479
(g1828
F3.8510618
tp2480
sS'FLP3FBN01DRFRX'
p2481
(g1709
F3.8601282
tp2482
sS'FLP3FBN01C44O7'
p2483
(g225
F6.0834956
tp2484
sS'FLP3FBN01AZ93K'
p2485
(g837
F3.9441092
tp2486
sS'FLP3FBN01AJ4R9'
p2487
(g1674
F4.85317
tp2488
sS'FLP3FBN01B6YON'
p2489
(g1656
F4.1107697
tp2490
sS'FLP3FBN01C0XC7'
p2491
(g1796
F4.3883877
tp2492
sS'FLP3FBN01BDPN5'
p2493
(g1558
F3.8224688
tp2494
sS'FLP3FBN01DHLY4'
p2495
(g1200
F4.1145477
tp2496
sS'FLP3FBN01DR3RW'
p2497
(g483
F4.4684863
tp2498
sS'FLP3FBN01BN228'
p2499
(g1200
F3.921053
tp2500
sS'FLP3FBN01B6DNW'
p2501
(g537
F4.2827845
tp2502
sS'FLP3FBN01AO1DG'
p2503
(g10
F5.5838203
tp2504
sS'FLP3FBN01DMBQY'
p2505
(g1796
F4.3396883
tp2506
sS'FLP3FBN01AEVVE'
p2507
(g1368
F4.914627
tp2508
sS'FLP3FBN01A8V8L'
p2509
(g275
F5.671843
tp2510
sS'FLP3FBN01CR7MF'
p2511
(g1368
F4.4843717
tp2512
sS'FLP3FBN01AKD0L'
p2513
(g1006
F5.329077
tp2514
sS'FLP3FBN01DZVEP'
p2515
(g1796
F3.9360871
tp2516
sS'FLP3FBN01EE1C3'
p2517
(g1709
F3.9253936
tp2518
sS'FLP3FBN01C1F87'
p2519
(g537
F5.5098124
tp2520
sS'FLP3FBN01CSZZD'
p2521
(g1851
F4.4074593
tp2522
sS'FLP3FBN01DTYVK'
p2523
(g225
F4.7877574
tp2524
sS'FLP3FBN01AUBJF'
p2525
(g225
F5.0022316
tp2526
sS'FLP3FBN01BWI9J'
p2527
(g1368
F4.284437
tp2528
sS'FLP3FBN01ANKI1'
p2529
(g1488
F3.7694871
tp2530
sS'FLP3FBN01DJ1EH'
p2531
(g1368
F4.9398227
tp2532
sS'FLP3FBN01AYGA0'
p2533
(g1265
F3.9836504
tp2534
sS'FLP3FBN01D8VJ6'
p2535
(g1796
F4.2225466
tp2536
sS'FLP3FBN01EAC1O'
p2537
(g1200
F5.1876745
tp2538
sS'FLP3FBN01BVGJF'
p2539
(g483
F4.1517334
tp2540
sS'FLP3FBN01BJE5P'
p2541
(g225
F5.938963
tp2542
sS'FLP3FBN01D5Y47'
p2543
(g483
F4.113574
tp2544
sS'FLP3FBN01A1FYD'
p2545
(g1828
F3.9487941
tp2546
sS'FLP3FBN01B4E5A'
p2547
(g967
F3.8635402
tp2548
sS'FLP3FBN01ELYL8'
p2549
(g1251
F4.119112
tp2550
sS'FLP3FBN01C1ALJ'
p2551
(g1107
F4.276953
tp2552
sS'FLP3FBN01ENY6F'
p2553
(g537
F4.434184
tp2554
sS'FLP3FBN01D7CTS'
p2555
(g293
F4.408211
tp2556
sS'FLP3FBN01BYVGX'
p2557
(g537
F4.271468
tp2558
sS'FLP3FBN01DZ97Y'
p2559
(g92
F4.343919
tp2560
sS'FLP3FBN01CAN8M'
p2561
(g1828
F4.1512804
tp2562
sS'FLP3FBN01CEUYF'
p2563
(g1251
F3.7618992
tp2564
sS'FLP3FBN01APXMT'
p2565
(g1709
F4.2018065
tp2566
sS'FLP3FBN01CAOAX'
p2567
(g537
F4.096343
tp2568
sS'FLP3FBN01BZNMV'
p2569
(g681
F3.7534244
tp2570
sS'FLP3FBN01DJY30'
p2571
(g483
F4.823943
tp2572
sS'FLP3FBN01CGYKR'
p2573
(g275
F5.8161874
tp2574
sS'FLP3FBN01ARTG1'
p2575
(g1468
F4.0728235
tp2576
sS'FLP3FBN01AOU7Q'
p2577
(g1604
F3.9213097
tp2578
sS'FLP3FBN01C3PFP'
p2579
(g592
F5.3734727
tp2580
sS'FLP3FBN01BW42C'
p2581
(g1107
F4.2855353
tp2582
sS'FLP3FBN01CWQIO'
p2583
(g1604
F4.5929003
tp2584
sS'FLP3FBN01DYX26'
p2585
(g1107
F5.173145
tp2586
sS'FLP3FBN01D2DVT'
p2587
(g1709
F3.8670197
tp2588
sS'FLP3FBN01CK4EX'
p2589
(g537
F4.6594534
tp2590
sS'FLP3FBN01AW01I'
p2591
(g1796
F4.0434966
tp2592
sS'FLP3FBN01AER1M'
p2593
(g1368
F5.761046
tp2594
sS'FLP3FBN01AH4QL'
p2595
(g1251
F3.8165774
tp2596
sS'FLP3FBN01DN5MU'
p2597
(g1400
F5.4003086
tp2598
sS'FLP3FBN01D3QET'
p2599
(g943
F4.822721
tp2600
sS'FLP3FBN01ADKEK'
p2601
(g190
F4.339128
tp2602
sS'FLP3FBN01AR785'
p2603
(g1090
F4.18516
tp2604
sS'FLP3FBN01ARODF'
p2605
(g1368
F4.2570753
tp2606
sS'FLP3FBN01BZK6L'
p2607
(g1828
F4.744211
tp2608
sS'FLP3FBN01DQFJG'
p2609
(g67
F5.6023026
tp2610
sS'FLP3FBN01DKURH'
p2611
(g1604
F4.101927
tp2612
sS'FLP3FBN01BAWOL'
p2613
(g319
F4.8121095
tp2614
sS'FLP3FBN01AY1NE'
p2615
(g67
F3.8400548
tp2616
sS'FLP3FBN01DH3NR'
p2617
(g1709
F3.90392
tp2618
sS'FLP3FBN01BWF4P'
p2619
(g1709
F4.563897
tp2620
sS'FLP3FBN01AT6OD'
p2621
(g483
F4.8504167
tp2622
sS'FLP3FBN01DDMH6'
p2623
(g1488
F3.95185
tp2624
sS'FLP3FBN01CDJ70'
p2625
(g1604
F4.6247582
tp2626
sS'FLP3FBN01BB5R9'
p2627
(g319
F5.0306697
tp2628
sS'FLP3FBN01CUX8S'
p2629
(g837
F4.8048363
tp2630
sS'FLP3FBN01CSRAJ'
p2631
(g1656
F5.692913
tp2632
sS'FLP3FBN01CNT1Q'
p2633
(g592
F5.191682
tp2634
sS'FLP3FBN01BQAKZ'
p2635
(g1368
F4.7664733
tp2636
sS'FLP3FBN01A6KUH'
p2637
(g1251
F4.1576705
tp2638
sS'FLP3FBN01DSRTP'
p2639
(g483
F4.213681
tp2640
sS'FLP3FBN01A6FDX'
p2641
(g483
F3.9969766
tp2642
sS'FLP3FBN01D4OI7'
p2643
(g345
F5.1809177
tp2644
sS'FLP3FBN01CD50B'
p2645
(g837
F4.204286
tp2646
sS'FLP3FBN01DQMNE'
p2647
(g1656
F4.271033
tp2648
sS'FLP3FBN01A0XKK'
p2649
(g1656
F3.8916314
tp2650
sS'FLP3FBN01EKZQ1'
p2651
(g1368
F4.7277427
tp2652
sS'FLP3FBN01D55K5'
p2653
(g1368
F5.209019
tp2654
sS'FLP3FBN01DQGNZ'
p2655
(g1006
F5.6821594
tp2656
sS'FLP3FBN01DO0PN'
p2657
(g1656
F4.4864383
tp2658
sS'FLP3FBN01B54IG'
p2659
(g1368
F4.4440536
tp2660
sS'FLP3FBN01CX6KS'
p2661
(g1200
F4.271499
tp2662
sS'FLP3FBN01C8AH6'
p2663
(g1368
F4.9181175
tp2664
sS'FLP3FBN01DD2LQ'
p2665
(g1368
F4.425628
tp2666
sS'FLP3FBN01CXUVC'
p2667
(g1604
F4.601047
tp2668
sS'FLP3FBN01DVSSP'
p2669
(g776
F4.7478647
tp2670
sS'FLP3FBN01DVCUY'
p2671
(g1709
F3.8181112
tp2672
sS'FLP3FBN01B0SNX'
p2673
(g1828
F4.6587486
tp2674
sS'FLP3FBN01EQVOU'
p2675
(g1368
F5.8632846
tp2676
sS'FLP3FBN01CKK5R'
p2677
(g1796
F4.507326
tp2678
sS'FLP3FBN01AMENY'
p2679
(g345
F5.1247153
tp2680
sS'FLP3FBN01D6TCI'
p2681
(g1674
F4.9034557
tp2682
sS'FLP3FBN01B9R0O'
p2683
(g1200
F4.12963
tp2684
sS'FLP3FBN01ECTYY'
p2685
(g1851
F4.7417574
tp2686
sS'FLP3FBN01B0TAP'
p2687
(g1320
F4.027645
tp2688
sS'FLP3FBN01DPZMM'
p2689
(g319
F5.955461
tp2690
sS'FLP3FBN01AR65G'
p2691
(g1851
F4.287309
tp2692
sS'FLP3FBN01BC6PA'
p2693
(g732
F4.6638694
tp2694
sS'FLP3FBN01BIK18'
p2695
(g681
F3.7818015
tp2696
sS'FLP3FBN01AL42P'
p2697
(g732
F5.526874
tp2698
sS'FLP3FBN01CLMTS'
p2699
(g592
F5.3919063
tp2700
sS'FLP3FBN01B5XY2'
p2701
(g1368
F4.0026236
tp2702
sS'FLP3FBN01AX3YR'
p2703
(g1200
F4.037101
tp2704
sS'FLP3FBN01A4NV1'
p2705
(g319
F4.344593
tp2706
sS'FLP3FBN01BW0YB'
p2707
(g1468
F4.727389
tp2708
sS'FLP3FBN01B65YI'
p2709
(g1064
F4.2191978
tp2710
sS'FLP3FBN01A5RCL'
p2711
(g1368
F5.110742
tp2712
sS'FLP3FBN01CIWNC'
p2713
(g1368
F5.462719
tp2714
sS'FLP3FBN01D7CGI'
p2715
(g1604
F3.9686878
tp2716
sS'FLP3FBN01A85QC'
p2717
(g293
F4.082794
tp2718
sS'FLP3FBN01EIDZ1'
p2719
(g537
F4.056489
tp2720
sS'FLP3FBN01AHH1K'
p2721
(g293
F4.4224663
tp2722
sS'FLP3FBN01B4FWO'
p2723
(g1488
F3.7728503
tp2724
sS'FLP3FBN01BVAH3'
p2725
(g537
F5.8027353
tp2726
sS'FLP3FBN01C3YCV'
p2727
(g1468
F4.7714677
tp2728
sS'FLP3FBN01AIDK4'
p2729
(g1828
F4.1555395
tp2730
sS'FLP3FBN01BXX60'
p2731
(g293
F5.3096337
tp2732
sS'FLP3FBN01D0IW2'
p2733
(g1796
F4.2235785
tp2734
sS'FLP3FBN01BLVU7'
p2735
(g483
F4.9529033
tp2736
sS'FLP3FBN01D8Y20'
p2737
(g776
F4.226596
tp2738
sS'FLP3FBN01B449W'
p2739
(g319
F5.0278573
tp2740
sS'FLP3FBN01AXZN7'
p2741
(g1200
F5.465249
tp2742
sS'FLP3FBN01B7KTL'
p2743
(g1803
F4.0923433
tp2744
sS'FLP3FBN01DKHEO'
p2745
(g537
F4.6336546
tp2746
sS'FLP3FBN01BZTX6'
p2747
(g1368
F4.08381
tp2748
sS'FLP3FBN01CXUT9'
p2749
(g681
F3.8715773
tp2750
sS'FLP3FBN01AYCPW'
p2751
(g1368
F4.421671
tp2752
sS'FLP3FBN01CLS7R'
p2753
(g483
F4.431186
tp2754
sS'FLP3FBN01DR37T'
p2755
(g1320
F5.320583
tp2756
sS'FLP3FBN01DJVP5'
p2757
(g1200
F5.231418
tp2758
sS'FLP3FBN01DPEUG'
p2759
(g1090
F5.3563266
tp2760
sS'FLP3FBN01AJSD6'
p2761
(g1251
F4.916178
tp2762
sS'FLP3FBN01AGO5G'
p2763
(g1769
F5.703211
tp2764
sS'FLP3FBN01EF8RN'
p2765
(g1803
F5.6015477
tp2766
sS'FLP3FBN01CIW8K'
p2767
(g1368
F4.730275
tp2768
sS'FLP3FBN01EDVUS'
p2769
(g422
F5.5496874
tp2770
sS'FLP3FBN01EENPI'
p2771
(g1006
F4.9227495
tp2772
sS'FLP3FBN01A6YVR'
p2773
(g275
F5.772232
tp2774
sS'FLP3FBN01DD2QI'
p2775
(g345
F5.579163
tp2776
sS'FLP3FBN01DUQQ0'
p2777
(g1368
F5.290592
tp2778
sS'FLP3FBN01B8F4K'
p2779
(g1488
F4.0051813
tp2780
sS'FLP3FBN01A9PL2'
p2781
(g1090
F4.4243217
tp2782
sS'FLP3FBN01D8L81'
p2783
(g1368
F5.086314
tp2784
sS'FLP3FBN01D8PY9'
p2785
(g1368
F5.1086583
tp2786
sS'FLP3FBN01A3VZS'
p2787
(g1320
F4.7080646
tp2788
sS'FLP3FBN01A17GS'
p2789
(g967
F5.2324376
tp2790
sS'FLP3FBN01D86I8'
p2791
(g483
F4.060717
tp2792
sS'FLP3FBN01EDF0K'
p2793
(g1488
F4.279665
tp2794
sS'FLP3FBN01DGFYQ'
p2795
(g67
F4.4589157
tp2796
sS'FLP3FBN01BU1CU'
p2797
(g1604
F5.3197055
tp2798
sS'FLP3FBN01D06GF'
p2799
(g1709
F4.238853
tp2800
sS'FLP3FBN01DD5NY'
p2801
(g1674
F4.4838753
tp2802
sS'FLP3FBN01C4QQE'
p2803
(g1200
F4.497545
tp2804
sS'FLP3FBN01AJFDA'
p2805
(g1368
F4.9252977
tp2806
sS'FLP3FBN01BEC0A'
p2807
(g1368
F5.315051
tp2808
sS'FLP3FBN01BJO96'
p2809
(g483
F5.072842
tp2810
sS'FLP3FBN01A6BZY'
p2811
(g1320
F4.192065
tp2812
sS'FLP3FBN01BFKOF'
p2813
(g1006
F4.1691213
tp2814
sS'FLP3FBN01BXZ1T'
p2815
(g275
F5.7570014
tp2816
sS'FLP3FBN01BLL5V'
p2817
(g1851
F4.8899684
tp2818
sS'FLP3FBN01DCLZP'
p2819
(g592
F5.3488097
tp2820
sS'FLP3FBN01A9EJ1'
p2821
(g1796
F3.7603807
tp2822
sS'FLP3FBN01C9021'
p2823
(g422
F4.792159
tp2824
sS'FLP3FBN01ARXOA'
p2825
(g537
F4.052236
tp2826
sS'FLP3FBN01BB8KH'
p2827
(g1674
F4.28379
tp2828
sS'FLP3FBN01DRJEK'
p2829
(g1604
F4.3669434
tp2830
sS'FLP3FBN01EGXD4'
p2831
(g1368
F5.2103558
tp2832
sS'FLP3FBN01AYJGP'
p2833
(g1265
F4.2689915
tp2834
sS'FLP3FBN01EQJ0R'
p2835
(g293
F4.6908927
tp2836
sS'FLP3FBN01CU37V'
p2837
(g1803
F5.4570932
tp2838
sS'FLP3FBN01C11Y6'
p2839
(g537
F4.332183
tp2840
sS'FLP3FBN01DVZQC'
p2841
(g1320
F4.820936
tp2842
sS'FLP3FBN01AVPQ2'
p2843
(g1709
F4.0890326
tp2844
sS'FLP3FBN01A0B3E'
p2845
(g1090
F3.7621686
tp2846
sS'FLP3FBN01DBC7G'
p2847
(g1709
F4.278226
tp2848
sS'FLP3FBN01DEJQB'
p2849
(g1200
F4.0983706
tp2850
sS'FLP3FBN01BTBC0'
p2851
(g1368
F4.5645027
tp2852
sS'FLP3FBN01DU20K'
p2853
(g1368
F5.230813
tp2854
sS'FLP3FBN01DQSSH'
p2855
(g1674
F3.7886567
tp2856
sS'FLP3FBN01CE5R8'
p2857
(g422
F5.532982
tp2858
sS'FLP3FBN01EB63O'
p2859
(g1828
F4.2018247
tp2860
sS'FLP3FBN01DI11Q'
p2861
(g225
F4.2422028
tp2862
sS'FLP3FBN01D5TAZ'
p2863
(g1200
F4.100285
tp2864
sS'FLP3FBN01EFIS6'
p2865
(g1251
F4.355079
tp2866
sS'FLP3FBN01BSFE9'
p2867
(g67
F5.069887
tp2868
sS'FLP3FBN01AHV2W'
p2869
(g67
F4.389544
tp2870
sS'FLP3FBN01BZ1F6'
p2871
(g275
F5.980082
tp2872
sS'FLP3FBN01EEXQK'
p2873
(g1851
F4.28024
tp2874
sS'FLP3FBN01D6UF4'
p2875
(g681
F4.124619
tp2876
sS'FLP3FBN01ECWT9'
p2877
(g1796
F4.9483485
tp2878
sS'FLP3FBN01ERY9Y'
p2879
(g1368
F4.023752
tp2880
sS'FLP3FBN01AFUF1'
p2881
(g1674
F4.4395227
tp2882
sS'FLP3FBN01CK0M3'
p2883
(g1006
F5.2176
tp2884
sS'FLP3FBN01BZOEE'
p2885
(g681
F3.9880953
tp2886
sS'FLP3FBN01A6MXL'
p2887
(g92
F4.4768806
tp2888
sS'FLP3FBN01C1PP4'
p2889
(g1656
F4.29046
tp2890
sS'FLP3FBN01CN7JX'
p2891
(g1265
F4.1589484
tp2892
sS'FLP3FBN01C9TUA'
p2893
(g1604
F5.053075
tp2894
sS'FLP3FBN01BOAPJ'
p2895
(g537
F4.191384
tp2896
sS'FLP3FBN01CEUV1'
p2897
(g1251
F3.8045955
tp2898
sS'FLP3FBN01AQFZV'
p2899
(g67
F4.5823708
tp2900
sS'FLP3FBN01DT1QK'
p2901
(g1265
F3.8427913
tp2902
sS'FLP3FBN01C45DS'
p2903
(g1251
F4.2868047
tp2904
sS'FLP3FBN01DP84W'
p2905
(g319
F4.0172653
tp2906
sS'FLP3FBN01ES2BT'
p2907
(g732
F5.9275155
tp2908
sS'FLP3FBN01DB5I7'
p2909
(g1709
F4.6036754
tp2910
sS'FLP3FBN01CTRWB'
p2911
(g1796
F4.108876
tp2912
sS'FLP3FBN01DEVFX'
p2913
(g837
F4.151394
tp2914
sS'FLP3FBN01AWH2Z'
p2915
(g1200
F4.085687
tp2916
sS'FLP3FBN01BN9BB'
p2917
(g1368
F4.2449107
tp2918
sS'FLP3FBN01BOTE5'
p2919
(g1796
F4.5148845
tp2920
sS'FLP3FBN01DI8DL'
p2921
(g1107
F4.926473
tp2922
sS'FLP3FBN01COFBD'
p2923
(g837
F4.665803
tp2924
sS'FLP3FBN01B0EIF'
p2925
(g537
F4.7106724
tp2926
sS'FLP3FBN01A2AJL'
p2927
(g1006
F4.439197
tp2928
sS'FLP3FBN01A95YV'
p2929
(g1828
F3.8086917
tp2930
sS'FLP3FBN01BTP39'
p2931
(g1828
F4.38471
tp2932
sS'FLP3FBN01CZ007'
p2933
(g225
F5.8243895
tp2934
sS'FLP3FBN01D4CIQ'
p2935
(g1200
F3.8027587
tp2936
sS'FLP3FBN01EBPW0'
p2937
(g943
F4.993557
tp2938
sS'FLP3FBN01CTMCP'
p2939
(g837
F4.2341795
tp2940
sS'FLP3FBN01B3DCW'
p2941
(g1803
F5.3020415
tp2942
sS'FLP3FBN01EYX93'
p2943
(g293
F5.084707
tp2944
sS'FLP3FBN01CTP94'
p2945
(g1107
F5.424925
tp2946
sS'FLP3FBN01C0GMZ'
p2947
(g837
F5.5130057
tp2948
sS'FLP3FBN01BVHTK'
p2949
(g92
F4.8739324
tp2950
sS'FLP3FBN01ET6LV'
p2951
(g1200
F4.420846
tp2952
sS'FLP3FBN01BD6JX'
p2953
(g92
F6.422802
tp2954
sS'FLP3FBN01A0HNZ'
p2955
(g1200
F4.956416
tp2956
sS'FLP3FBN01D15YG'
p2957
(g293
F4.478881
tp2958
sS'FLP3FBN01BTIK9'
p2959
(g837
F3.8595736
tp2960
sS'FLP3FBN01B0QGX'
p2961
(g345
F6.739901
tp2962
sS'FLP3FBN01DCLBL'
p2963
(g1468
F4.3700695
tp2964
sS'FLP3FBN01DQS40'
p2965
(g537
F5.3869576
tp2966
sS'FLP3FBN01AF9TE'
p2967
(g1320
F4.477088
tp2968
sS'FLP3FBN01EFNNG'
p2969
(g1368
F4.7149916
tp2970
sS'FLP3FBN01AMBQN'
p2971
(g293
F4.6917167
tp2972
sS'FLP3FBN01C65QI'
p2973
(g537
F5.139493
tp2974
sS'FLP3FBN01D8J4C'
p2975
(g225
F4.6632676
tp2976
sS'FLP3FBN01B8KLV'
p2977
(g1709
F4.253643
tp2978
sS'FLP3FBN01DRBCR'
p2979
(g92
F4.848807
tp2980
sS'FLP3FBN01A4SET'
p2981
(g1851
F5.2295485
tp2982
sS'FLP3FBN01B9JHP'
p2983
(g1251
F4.5326595
tp2984
sS'FLP3FBN01BKOLX'
p2985
(g1320
F4.8466077
tp2986
sS'FLP3FBN01BW7BY'
p2987
(g422
F4.997648
tp2988
sS'FLP3FBN01BOOHE'
p2989
(g275
F5.725909
tp2990
sS'FLP3FBN01AEB2N'
p2991
(g1200
F3.9785566
tp2992
sS'FLP3FBN01COSQ8'
p2993
(g1368
F4.9441833
tp2994
sS'FLP3FBN01EV5MZ'
p2995
(g1604
F6.206902
tp2996
sS'FLP3FBN01DIARK'
p2997
(g1006
F4.3537107
tp2998
sS'FLP3FBN01BTOX2'
p2999
(g1006
F4.491958
tp3000
sS'FLP3FBN01DMRPA'
p3001
(g1709
F4.650244
tp3002
sS'FLP3FBN01CHNXI'
p3003
(g1656
F5.423172
tp3004
sS'FLP3FBN01AMXMK'
p3005
(g1828
F4.084795
tp3006
sS'FLP3FBN01CLMSS'
p3007
(g1488
F4.1333017
tp3008
sS'FLP3FBN01DKS5K'
p3009
(g1200
F3.8101814
tp3010
sS'FLP3FBN01DQMD6'
p3011
(g225
F4.3632174
tp3012
sS'FLP3FBN01EI5JL'
p3013
(g1320
F4.197652
tp3014
sS'FLP3FBN01BBWRU'
p3015
(g1251
F4.398898
tp3016
sS'FLP3FBN01DV3TK'
p3017
(g1796
F4.1344743
tp3018
sS'FLP3FBN01EOJO5'
p3019
(g1107
F4.8437133
tp3020
sS'FLP3FBN01A1JXR'
p3021
(g1090
F4.5121346
tp3022
sS'FLP3FBN01B5GN0'
p3023
(g1320
F4.996012
tp3024
sS'FLP3FBN01A8P22'
p3025
(g1368
F4.8006387
tp3026
sS'FLP3FBN01CQO5F'
p3027
(g1468
F5.0264845
tp3028
sS'FLP3FBN01CURUA'
p3029
(g537
F4.967768
tp3030
sS'FLP3FBN01DBO5X'
p3031
(g483
F3.7687461
tp3032
sS'FLP3FBN01AKJ8H'
p3033
(g1709
F3.7620032
tp3034
sS'FLP3FBN01A2G7F'
p3035
(g1368
F3.7554803
tp3036
sS'FLP3FBN01D9E65'
p3037
(g422
F5.095932
tp3038
sS'FLP3FBN01AKXJC'
p3039
(g483
F4.624927
tp3040
sS'FLP3FBN01DEHK3'
p3041
(g1368
F4.4742823
tp3042
sS'FLP3FBN01DUUQ8'
p3043
(g1265
F4.051924
tp3044
sS'FLP3FBN01A68AG'
p3045
(g681
F3.821022
tp3046
sS'FLP3FBN01CECHO'
p3047
(g953
F6.1741323
tp3048
sS'FLP3FBN01CU9QX'
p3049
(g67
F4.1955605
tp3050
sS'FLP3FBN01BOFGD'
p3051
(g1200
F4.3816066
tp3052
sS'FLP3FBN01BPX14'
p3053
(g967
F4.328727
tp3054
sS'FLP3FBN01BUKY6'
p3055
(g1107
F4.9799175
tp3056
sS'FLP3FBN01BS9WF'
p3057
(g1200
F3.884029
tp3058
sS'FLP3FBN01BYGK2'
p3059
(g1368
F5.2296524
tp3060
sS'FLP3FBN01DQIRW'
p3061
(g1200
F3.7545388
tp3062
sS'FLP3FBN01A5TI5'
p3063
(g1828
F3.781485
tp3064
sS'FLP3FBN01C667Q'
p3065
(g1251
F4.4537706
tp3066
sS'FLP3FBN01CMQ1H'
p3067
(g1656
F3.8397787
tp3068
sS'FLP3FBN01B7UNT'
p3069
(g1251
F4.231649
tp3070
sS'FLP3FBN01C6ISY'
p3071
(g1828
F3.7530801
tp3072
sS'FLP3FBN01ARU00'
p3073
(g1709
F4.5680785
tp3074
sS'FLP3FBN01DGRID'
p3075
(g319
F5.234465
tp3076
sS'FLP3FBN01DVIVE'
p3077
(g1769
F4.943629
tp3078
sS'FLP3FBN01AZSFJ'
p3079
(g1434
F4.4006615
tp3080
sS'FLP3FBN01BSMR0'
p3081
(g1488
F4.1068707
tp3082
sS'FLP3FBN01AF994'
p3083
(g732
F5.973322
tp3084
sS'FLP3FBN01EPSYJ'
p3085
(g190
F5.9657025
tp3086
sS'FLP3FBN01A7NE9'
p3087
(g1107
F5.23139
tp3088
sS'FLP3FBN01BA934'
p3089
(g776
F4.6897597
tp3090
sS'FLP3FBN01D5KU1'
p3091
(g1796
F4.4170437
tp3092
sS'FLP3FBN01B03Q3'
p3093
(g1107
F5.351776
tp3094
sS'FLP3FBN01DQGLV'
p3095
(g537
F5.8477955
tp3096
sS'FLP3FBN01BSTZH'
p3097
(g275
F5.4914985
tp3098
sS'FLP3FBN01A6SQ3'
p3099
(g1368
F4.215487
tp3100
sS'FLP3FBN01BT0AE'
p3101
(g275
F4.8224173
tp3102
sS'FLP3FBN01ERW7M'
p3103
(g1006
F4.9612684
tp3104
sS'FLP3FBN01AVA3U'
p3105
(g67
F3.8454401
tp3106
sS'FLP3FBN01C645E'
p3107
(g92
F4.241967
tp3108
sS'FLP3FBN01EEA7Q'
p3109
(g537
F4.7338123
tp3110
sS'FLP3FBN01DVTEG'
p3111
(g1656
F5.4901276
tp3112
sS'FLP3FBN01DZ6P8'
p3113
(g293
F4.203898
tp3114
sS'FLP3FBN01D0JVY'
p3115
(g1200
F4.6665587
tp3116
sS'FLP3FBN01B1MJU'
p3117
(g293
F4.9518676
tp3118
sS'FLP3FBN01AK9OO'
p3119
(g1368
F6.0683928
tp3120
sS'FLP3FBN01DQR2G'
p3121
(g92
F4.3555894
tp3122
sS'FLP3FBN01BVQJR'
p3123
(g1709
F3.7775915
tp3124
sS'FLP3FBN01AS2O8'
p3125
(g1488
F4.2268157
tp3126
sS'FLP3FBN01EZQR8'
p3127
(g1090
F5.6845975
tp3128
sS'FLP3FBN01CDWQ4'
p3129
(g225
F4.496468
tp3130
sS'FLP3FBN01CXD3D'
p3131
(g1828
F4.2609
tp3132
sS'FLP3FBN01BUMCM'
p3133
(g1200
F4.3748612
tp3134
sS'FLP3FBN01DQSWF'
p3135
(g1200
F4.547262
tp3136
sS'FLP3FBN01AM0P3'
p3137
(g483
F4.1893325
tp3138
sS'FLP3FBN01B9U1E'
p3139
(g422
F4.6065655
tp3140
sS'FLP3FBN01D9ANJ'
p3141
(g293
F5.337646
tp3142
sS'FLP3FBN01BKWR9'
p3143
(g1200
F5.398976
tp3144
sS'FLP3FBN01AMFQA'
p3145
(g1851
F5.3615437
tp3146
sS'FLP3FBN01DVCKT'
p3147
(g1320
F4.2412453
tp3148
sS'FLP3FBN01AYADU'
p3149
(g1368
F4.9782777
tp3150
sS'FLP3FBN01CJOJP'
p3151
(g1368
F4.949738
tp3152
sS'FLP3FBN01ALS1C'
p3153
(g1796
F4.3904076
tp3154
sS'FLP3FBN01D7ZG7'
p3155
(g67
F5.180014
tp3156
sS'FLP3FBN01C1PAK'
p3157
(g1107
F5.5624404
tp3158
sS'FLP3FBN01DHOF4'
p3159
(g1200
F4.132256
tp3160
sS'FLP3FBN01AWPFQ'
p3161
(g837
F4.797959
tp3162
sS'FLP3FBN01DE1KU'
p3163
(g1803
F5.6762896
tp3164
sS'FLP3FBN01ELLAQ'
p3165
(g732
F4.315122
tp3166
sS'FLP3FBN01CHFB7'
p3167
(g1488
F3.8994858
tp3168
sS'FLP3FBN01CFA5S'
p3169
(g1656
F3.7946036
tp3170
sS'FLP3FBN01AFERM'
p3171
(g92
F3.942236
tp3172
sS'FLP3FBN01A1YKO'
p3173
(g837
F5.6223364
tp3174
sS'FLP3FBN01DB7BE'
p3175
(g293
F4.4418173
tp3176
sS'FLP3FBN01ARBPM'
p3177
(g681
F3.8076594
tp3178
sS'FLP3FBN01ED2F6'
p3179
(g1265
F4.056344
tp3180
sS'FLP3FBN01AYSZA'
p3181
(g1368
F5.5256953
tp3182
sS'FLP3FBN01CQGY3'
p3183
(g1656
F4.160454
tp3184
sS'FLP3FBN01DR8GQ'
p3185
(g422
F5.539391
tp3186
sS'FLP3FBN01BULUD'
p3187
(g483
F4.3031125
tp3188
sS'FLP3FBN01BG5PZ'
p3189
(g422
F5.6591434
tp3190
sS'FLP3FBN01ANQ3B'
p3191
(g592
F5.333368
tp3192
sS'FLP3FBN01ENV4O'
p3193
(g1200
F4.062862
tp3194
sS'FLP3FBN01B9E1U'
p3195
(g1796
F4.2971563
tp3196
sS'FLP3FBN01AQPXC'
p3197
(g1301
F5.2962775
tp3198
sS'FLP3FBN01BSEFO'
p3199
(g1320
F4.7219768
tp3200
sS'FLP3FBN01DI95G'
p3201
(g422
F5.408771
tp3202
sS'FLP3FBN01BLIY9'
p3203
(g1064
F3.974418
tp3204
sS'FLP3FBN01DXG0S'
p3205
(g1656
F4.0693154
tp3206
sS'FLP3FBN01A2RID'
p3207
(g67
F5.8325615
tp3208
sS'FLP3FBN01AYYJN'
p3209
(g592
F5.177753
tp3210
sS'FLP3FBN01EETLW'
p3211
(g681
F4.568552
tp3212
sS'FLP3FBN01ALP0V'
p3213
(g1796
F4.3047285
tp3214
sS'FLP3FBN01BQL2S'
p3215
(g1851
F4.5713124
tp3216
sS'FLP3FBN01A55LW'
p3217
(g1090
F4.340039
tp3218
sS'FLP3FBN01BJH6S'
p3219
(g1200
F5.3771615
tp3220
sS'FLP3FBN01D7F5H'
p3221
(g1604
F4.7995896
tp3222
sS'FLP3FBN01D1IC0'
p3223
(g1709
F5.0653853
tp3224
sS'FLP3FBN01BIKSR'
p3225
(g1368
F5.120599
tp3226
sS'FLP3FBN01EM86A'
p3227
(g1709
F4.3143454
tp3228
sS'FLP3FBN01B438A'
p3229
(g319
F4.1250567
tp3230
sS'FLP3FBN01DQKWR'
p3231
(g1803
F6.2223854
tp3232
sS'FLP3FBN01EEO8Q'
p3233
(g1251
F3.7503335
tp3234
sS'FLP3FBN01D79PA'
p3235
(g1200
F4.2977133
tp3236
sS'FLP3FBN01EIL6N'
p3237
(g67
F4.516393
tp3238
sS'FLP3FBN01B1L15'
p3239
(g1107
F5.31726
tp3240
sS'FLP3FBN01BVUDC'
p3241
(g1803
F5.8030567
tp3242
sS'FLP3FBN01A3LZ0'
p3243
(g732
F5.7908583
tp3244
sS'FLP3FBN01BAWPK'
p3245
(g483
F4.759537
tp3246
sS'FLP3FBN01B9SW2'
p3247
(g1709
F3.8929682
tp3248
sS'FLP3FBN01CPIOY'
p3249
(g1006
F4.164662
tp3250
sS'FLP3FBN01AJ4LN'
p3251
(g1796
F3.9649343
tp3252
sS'FLP3FBN01B2A3Z'
p3253
(g275
F5.023088
tp3254
sS'FLP3FBN01DN1Z3'
p3255
(g1265
F3.8226886
tp3256
sS'FLP3FBN01A5XYK'
p3257
(g1200
F4.325562
tp3258
sS'FLP3FBN01EKI61'
p3259
(g225
F6.132989
tp3260
sS'FLP3FBN01D1PPR'
p3261
(g1828
F3.760612
tp3262
sS'FLP3FBN01DATE7'
p3263
(g1674
F5.1938553
tp3264
sS'FLP3FBN01BX9OT'
p3265
(g293
F3.990251
tp3266
sS'FLP3FBN01BOMSP'
p3267
(g1604
F4.2177534
tp3268
sS'FLP3FBN01EOUWL'
p3269
(g1200
F3.7710204
tp3270
sS'FLP3FBN01BW4TT'
p3271
(g190
F5.951729
tp3272
sS'FLP3FBN01A7TP4'
p3273
(g1604
F4.499429
tp3274
sS'FLP3FBN01BD8E7'
p3275
(g776
F4.795926
tp3276
sS'FLP3FBN01D2AYU'
p3277
(g1200
F3.8920453
tp3278
sS'FLP3FBN01EHQW9'
p3279
(g1828
F4.4658284
tp3280
sS'FLP3FBN01EB4D8'
p3281
(g1006
F4.4741693
tp3282
sS'FLP3FBN01EAKES'
p3283
(g1006
F5.425144
tp3284
sS'FLP3FBN01B3PY0'
p3285
(g1604
F3.8824909
tp3286
sS'FLP3FBN01EDWJK'
p3287
(g92
F4.646055
tp3288
s(lp3289
g610
ag422
ag190
ag483
ag1709
ag10
ag681
ag1434
ag1674
ag1265
ag1558
aS'FLP3FBN01BXFJH'
p3290
ag967
ag1604
ag1803
ag92
ag1090
ag1656
ag319
ag1200
ag1400
ag1828
ag1851
ag275
ag1154
ag1169
aS'FLP3FBN01A6SLO'
p3291
ag225
ag293
ag345
ag837
aS'FLP3FBN01DY4CI'
p3292
ag1368
ag732
aS'FLP3FBN01DA3NU'
p3293
ag1251
ag1468
ag1488
aS'FLP3FBN01EP59G'
p3294
ag1769
aS'FLP3FBN01C1EUH'
p3295
aS'FLP3FBN01EK2JX'
p3296
aS'FLP3FBN01E11F6'
p3297
aS'FLP3FBN01ACUB7'
p3298
aS'FLP3FBN01EFF35'
p3299
ag1006
ag1320
aS'FLP3FBN01C68GY'
p3300
ag1796
ag67
ag378
ag537
aS'FLP3FBN01B86XL'
p3301
ag592
ag676
ag776
ag943
ag953
ag1064
ag1107
ag1301
aS'FLP3FBN01CUA96'
p3302
aS'FLP3FBN01A4UET'
p3303
ag0
ag1546
ag61
ag64
ag111
aS'FLP3FBN01CKTYU'
p3304
ag146
ag151
ag270
ag310
aS'FLP3FBN01BHLW4'
p3305
aS'FLP3FBN01BUOD1'
p3306
ag400
ag413
aS'FLP3FBN01BC5FW'
p3307
ag555
aS'FLP3FBN01AF3UI'
p3308
aS'FLP3FBN01EII4M'
p3309
aS'FLP3FBN01DRT2O'
p3310
ag804
aS'FLP3FBN01ESUQV'
p3311
ag813
ag834
ag852
aS'FLP3FBN01B97H8'
p3312
aS'FLP3FBN01BR1S4'
p3313
ag998
ag1001
ag1015
ag1028
ag1035
aS'FLP3FBN01AE1JZ'
p3314
aS'FLP3FBN01CCNMN'
p3315
aS'FLP3FBN01A24G3'
p3316
ag1087
ag1189
aS'FLP3FBN01AGYWU'
p3317
aS'FLP3FBN01BSM84'
p3318
aS'FLP3FBN01CI8Z2'
p3319
aS'FLP3FBN01DI8XZ'
p3320
ag1395
ag1413
aS'FLP3FBN01CMRIY'
p3321
aS'FLP3FBN01CUQNU'
p3322
aS'FLP3FBN01CTU4A'
p3323
ag1537
ag1592
ag1601
aS'FLP3FBN01DL2J4'
p3324
aS'FLP3FBN01DVDLD'
p3325
ag1760
ag1789
ag2
aS'FLP3FBN01AXQ2Z'
p3326
aS'FLP3FBN01CIA5C'
p3327
ag4
aS'FLP3FBN01ETEMV'
p3328
aS'FLP3FBN01AF0HW'
p3329
ag6
aS'FLP3FBN01CPOTU'
p3330
ag8
aS'FLP3FBN01BU66X'
p3331
aS'FLP3FBN01DFTRG'
p3332
ag55
ag57
ag59
aS'FLP3FBN01CFKFW'
p3333
aS'FLP3FBN01A2K0Q'
p3334
ag74
ag76
aS'FLP3FBN01E2P4M'
p3335
ag78
aS'FLP3FBN01BCTWA'
p3336
aS'FLP3FBN01AY6JF'
p3337
aS'FLP3FBN01ETH11'
p3338
ag80
aS'FLP3FBN01A2YVL'
p3339
aS'FLP3FBN01ANJSA'
p3340
ag82
ag84
aS'FLP3FBN01ENPIT'
p3341
ag86
ag88
ag90
ag107
ag109
ag114
ag116
aS'FLP3FBN01DIYX9'
p3342
aS'FLP3FBN01D8YZ5'
p3343
ag118
ag120
ag122
ag124
ag126
aS'FLP3FBN01EEXTN'
p3344
ag128
ag130
ag132
aS'FLP3FBN01AIAA5'
p3345
ag134
ag136
ag138
ag140
ag142
ag144
aS'FLP3FBN01D9BZ0'
p3346
aS'FLP3FBN01AYIUY'
p3347
ag149
aS'FLP3FBN01C6P40'
p3348
ag154
aS'FLP3FBN01BAZV6'
p3349
ag156
ag158
aS'FLP3FBN01D28RJ'
p3350
aS'FLP3FBN01EYHU5'
p3351
aS'FLP3FBN01BR61D'
p3352
ag160
ag162
aS'FLP3FBN01DQAD5'
p3353
ag164
ag166
ag168
aS'FLP3FBN01C1ONI'
p3354
ag170
ag172
ag174
ag176
aS'FLP3FBN01CG3KS'
p3355
ag178
ag180
ag182
ag184
aS'FLP3FBN01D7325'
p3356
ag186
ag188
aS'FLP3FBN01CKQDF'
p3357
ag221
ag223
aS'FLP3FBN01CZUXO'
p3358
ag244
ag246
ag248
aS'FLP3FBN01D66OZ'
p3359
ag250
ag252
ag254
ag256
ag258
ag260
ag262
ag264
aS'FLP3FBN01BX26A'
p3360
ag266
ag268
aS'FLP3FBN01AZK2X'
p3361
ag273
ag287
ag289
ag291
ag304
ag306
ag308
aS'FLP3FBN01A1GYR'
p3362
aS'FLP3FBN01DHESU'
p3363
aS'FLP3FBN01CWRA1'
p3364
ag313
ag315
aS'FLP3FBN01CO4O9'
p3365
ag317
aS'FLP3FBN01ANBIL'
p3366
ag333
ag335
ag337
aS'FLP3FBN01DAS79'
p3367
aS'FLP3FBN01CEGMP'
p3368
ag339
ag341
aS'FLP3FBN01AX4MJ'
p3369
ag343
aS'FLP3FBN01A2KBL'
p3370
aS'FLP3FBN01DR99Q'
p3371
aS'FLP3FBN01D7AVV'
p3372
ag356
ag358
ag360
ag362
ag364
aS'FLP3FBN01DYU4B'
p3373
aS'FLP3FBN01CWLZU'
p3374
aS'FLP3FBN01CIT14'
p3375
ag366
ag368
aS'FLP3FBN01CSG40'
p3376
ag370
ag372
ag374
aS'FLP3FBN01D3JOZ'
p3377
ag376
ag382
aS'FLP3FBN01B2ALM'
p3378
aS'FLP3FBN01CN8VK'
p3379
aS'FLP3FBN01ENBFP'
p3380
ag384
aS'FLP3FBN01D9H69'
p3381
ag386
ag388
ag390
aS'FLP3FBN01BOOJJ'
p3382
ag392
aS'FLP3FBN01A6VU8'
p3383
ag394
aS'FLP3FBN01CSXJW'
p3384
ag396
aS'FLP3FBN01EDYEP'
p3385
ag398
ag403
aS'FLP3FBN01EMWGJ'
p3386
aS'FLP3FBN01COYKA'
p3387
aS'FLP3FBN01BCWX5'
p3388
aS'FLP3FBN01B39O5'
p3389
ag405
ag407
ag409
ag411
aS'FLP3FBN01BW1QP'
p3390
aS'FLP3FBN01DLDHU'
p3391
ag416
ag418
ag420
aS'FLP3FBN01ANMU2'
p3392
aS'FLP3FBN01AHXU8'
p3393
ag479
ag481
aS'FLP3FBN01D7MLX'
p3394
ag533
ag535
ag541
ag543
ag545
ag547
ag549
aS'FLP3FBN01B2DRT'
p3395
aS'FLP3FBN01BYEMY'
p3396
ag551
ag553
aS'FLP3FBN01EM0GU'
p3397
aS'FLP3FBN01B74TP'
p3398
aS'FLP3FBN01B350B'
p3399
ag558
ag560
ag562
ag564
ag566
ag568
ag570
ag572
ag574
ag576
aS'FLP3FBN01D4230'
p3400
ag578
ag580
ag582
ag584
aS'FLP3FBN01CSORT'
p3401
aS'FLP3FBN01AXM4C'
p3402
aS'FLP3FBN01BHOAC'
p3403
aS'FLP3FBN01ELV1R'
p3404
ag586
ag588
aS'FLP3FBN01CHB2R'
p3405
ag590
ag598
aS'FLP3FBN01BKT0E'
p3406
aS'FLP3FBN01AL8JX'
p3407
aS'FLP3FBN01C9PO9'
p3408
ag600
ag602
ag604
ag606
ag608
aS'FLP3FBN01CFTC2'
p3409
ag662
ag664
ag666
ag668
aS'FLP3FBN01D44U7'
p3410
ag670
ag672
ag674
aS'FLP3FBN01BCBOG'
p3411
aS'FLP3FBN01BYYFZ'
p3412
ag722
ag724
ag726
aS'FLP3FBN01EJ91Q'
p3413
aS'FLP3FBN01A5KXW'
p3414
aS'FLP3FBN01ESJ5R'
p3415
ag728
aS'FLP3FBN01BTCQ8'
p3416
ag730
aS'FLP3FBN01DAJ0V'
p3417
ag738
ag740
aS'FLP3FBN01AZ963'
p3418
ag742
ag744
aS'FLP3FBN01BE4YH'
p3419
ag746
aS'FLP3FBN01DPJ0D'
p3420
aS'FLP3FBN01BR8CU'
p3421
ag748
aS'FLP3FBN01CHR1X'
p3422
aS'FLP3FBN01ENDTE'
p3423
ag750
aS'FLP3FBN01C4BE9'
p3424
ag752
aS'FLP3FBN01BZF87'
p3425
ag754
ag756
ag758
aS'FLP3FBN01D9D5Q'
p3426
ag760
ag762
ag764
ag766
ag768
ag770
aS'FLP3FBN01DDPFF'
p3427
ag772
aS'FLP3FBN01D87QS'
p3428
ag774
ag788
ag790
ag792
ag794
ag796
ag798
ag800
aS'FLP3FBN01AIT2F'
p3429
ag802
aS'FLP3FBN01EK704'
p3430
aS'FLP3FBN01CSGAL'
p3431
ag807
ag809
ag811
ag816
ag818
ag820
ag822
ag824
aS'FLP3FBN01DXGDW'
p3432
ag826
ag828
ag830
aS'FLP3FBN01BUCNS'
p3433
ag832
aS'FLP3FBN01DNNDF'
p3434
ag855
ag857
aS'FLP3FBN01AJ7M7'
p3435
ag859
aS'FLP3FBN01BHVDZ'
p3436
ag861
ag863
ag865
ag867
aS'FLP3FBN01BYAA8'
p3437
aS'FLP3FBN01EC04T'
p3438
aS'FLP3FBN01CL1LE'
p3439
ag869
aS'FLP3FBN01DQ5NS'
p3440
aS'FLP3FBN01A38MX'
p3441
ag871
ag873
aS'FLP3FBN01BBDL9'
p3442
aS'FLP3FBN01ED2R2'
p3443
aS'FLP3FBN01C03VW'
p3444
aS'FLP3FBN01CHCL3'
p3445
ag875
ag877
aS'FLP3FBN01CABHI'
p3446
aS'FLP3FBN01C62R4'
p3447
aS'FLP3FBN01D5PDA'
p3448
aS'FLP3FBN01A3EIE'
p3449
ag879
ag881
ag883
aS'FLP3FBN01A9EX0'
p3450
aS'FLP3FBN01DOAO5'
p3451
aS'FLP3FBN01C8P52'
p3452
ag885
ag887
aS'FLP3FBN01A3PGP'
p3453
ag889
ag891
aS'FLP3FBN01B1VVL'
p3454
ag893
ag895
ag897
ag899
ag901
ag903
aS'FLP3FBN01BV60P'
p3455
ag905
ag907
aS'FLP3FBN01EZ4SI'
p3456
ag909
aS'FLP3FBN01B8NID'
p3457
aS'FLP3FBN01AE4FR'
p3458
aS'FLP3FBN01D0A3H'
p3459
ag911
aS'FLP3FBN01B03J2'
p3460
ag913
ag915
ag917
aS'FLP3FBN01EUKQQ'
p3461
ag919
ag921
ag923
ag925
ag927
aS'FLP3FBN01C2UWD'
p3462
ag929
ag931
aS'FLP3FBN01CZE2X'
p3463
ag933
ag935
ag937
ag939
aS'FLP3FBN01DDGAY'
p3464
ag941
aS'FLP3FBN01DIPTV'
p3465
aS'FLP3FBN01EPSX1'
p3466
ag949
ag951
aS'FLP3FBN01DPA2Y'
p3467
aS'FLP3FBN01EOHM5'
p3468
ag963
aS'FLP3FBN01DUG1R'
p3469
ag965
ag994
aS'FLP3FBN01BU6SJ'
p3470
aS'FLP3FBN01CJZCS'
p3471
aS'FLP3FBN01EKL55'
p3472
aS'FLP3FBN01CGNQ7'
p3473
ag996
ag1004
aS'FLP3FBN01D0FVD'
p3474
aS'FLP3FBN01EV4Z5'
p3475
aS'FLP3FBN01D6MDJ'
p3476
ag1018
ag1020
ag1022
ag1024
ag1026
ag1031
ag1033
ag1038
aS'FLP3FBN01EJZ09'
p3477
aS'FLP3FBN01COR6A'
p3478
aS'FLP3FBN01D88A5'
p3479
ag1040
ag1042
aS'FLP3FBN01B533J'
p3480
ag1044
aS'FLP3FBN01D3MIZ'
p3481
ag1046
ag1048
ag1050
ag1052
aS'FLP3FBN01ARHYF'
p3482
aS'FLP3FBN01CM73M'
p3483
ag1054
aS'FLP3FBN01CBJWL'
p3484
aS'FLP3FBN01DOYEX'
p3485
ag1056
ag1058
ag1060
aS'FLP3FBN01EJKEX'
p3486
ag1062
aS'FLP3FBN01BV9MF'
p3487
aS'FLP3FBN01D0BE4'
p3488
aS'FLP3FBN01D0CQF'
p3489
ag1069
ag1071
ag1073
ag1075
ag1077
aS'FLP3FBN01DG439'
p3490
ag1079
ag1081
aS'FLP3FBN01DYMXO'
p3491
aS'FLP3FBN01EBSVN'
p3492
aS'FLP3FBN01BPYDP'
p3493
aS'FLP3FBN01D8F9Q'
p3494
ag1083
ag1085
aS'FLP3FBN01BAT9T'
p3495
aS'FLP3FBN01ASO4F'
p3496
ag1103
aS'FLP3FBN01EEWKD'
p3497
ag1105
ag1112
aS'FLP3FBN01DIYZ3'
p3498
ag1114
ag1116
ag1118
ag1120
aS'FLP3FBN01AMVJR'
p3499
ag1122
ag1124
aS'FLP3FBN01D9EK7'
p3500
ag1126
aS'FLP3FBN01B4V0D'
p3501
ag1128
aS'FLP3FBN01AGMG5'
p3502
ag1130
aS'FLP3FBN01A2TMU'
p3503
aS'FLP3FBN01BDDUQ'
p3504
ag1132
aS'FLP3FBN01APRO8'
p3505
ag1134
ag1136
ag1138
ag1140
aS'FLP3FBN01B4MLO'
p3506
ag1142
aS'FLP3FBN01CVPVO'
p3507
ag1144
aS'FLP3FBN01DH65L'
p3508
ag1146
aS'FLP3FBN01BKQF8'
p3509
ag1148
aS'FLP3FBN01EBLMN'
p3510
ag1150
ag1152
ag1165
aS'FLP3FBN01ARRYC'
p3511
ag1167
aS'FLP3FBN01A88RD'
p3512
aS'FLP3FBN01AMBXT'
p3513
aS'FLP3FBN01BUFD0'
p3514
ag1177
ag1179
ag1181
ag1183
aS'FLP3FBN01ELBSX'
p3515
ag1185
aS'FLP3FBN01BBORZ'
p3516
aS'FLP3FBN01APUP8'
p3517
ag1187
ag1192
ag1194
ag1196
ag1198
aS'FLP3FBN01D2E5F'
p3518
ag1229
aS'FLP3FBN01DNVVZ'
p3519
ag1231
ag1233
ag1235
ag1237
ag1239
aS'FLP3FBN01AKUQT'
p3520
ag1241
ag1243
ag1245
aS'FLP3FBN01CD97W'
p3521
ag1247
aS'FLP3FBN01DU3OR'
p3522
ag1249
aS'FLP3FBN01EVVYX'
p3523
ag1293
ag1295
ag1297
ag1299
ag1308
aS'FLP3FBN01AP0N3'
p3524
ag1310
ag1312
aS'FLP3FBN01DE016'
p3525
ag1314
ag1316
ag1318
ag1330
ag1332
aS'FLP3FBN01AJ5LD'
p3526
ag1334
aS'FLP3FBN01C0173'
p3527
ag1336
ag1338
ag1340
aS'FLP3FBN01A8C9C'
p3528
ag1342
ag1344
ag1346
aS'FLP3FBN01CUN6D'
p3529
aS'FLP3FBN01CHVM4'
p3530
ag1348
ag1350
ag1352
ag1354
ag1356
ag1358
aS'FLP3FBN01EGJ5Q'
p3531
ag1360
aS'FLP3FBN01CPD70'
p3532
ag1362
ag1364
ag1366
ag1379
ag1381
ag1383
ag1385
ag1387
ag1389
ag1391
ag1393
aS'FLP3FBN01BJO3F'
p3533
aS'FLP3FBN01CLP3T'
p3534
ag1398
aS'FLP3FBN01DUWHJ'
p3535
aS'FLP3FBN01C17R1'
p3536
ag1416
aS'FLP3FBN01A3YSL'
p3537
ag1418
ag1420
ag1422
aS'FLP3FBN01C903U'
p3538
ag1424
ag1426
ag1428
ag1430
ag1432
ag1459
aS'FLP3FBN01APRWO'
p3539
aS'FLP3FBN01CKKP0'
p3540
aS'FLP3FBN01AULX0'
p3541
ag1464
ag1466
ag1480
ag1482
ag1484
ag1486
aS'FLP3FBN01AYGTR'
p3542
ag1499
ag1501
ag1503
ag1505
ag1507
ag1509
ag1511
aS'FLP3FBN01D1105'
p3543
ag1513
aS'FLP3FBN01DSMJS'
p3544
aS'FLP3FBN01BZKF3'
p3545
ag1515
ag1517
ag1519
aS'FLP3FBN01D9HWD'
p3546
aS'FLP3FBN01EGX4W'
p3547
aS'FLP3FBN01AJ8QF'
p3548
ag1521
ag1523
aS'FLP3FBN01ASXZX'
p3549
ag1525
ag1527
ag1529
ag1531
ag1533
aS'FLP3FBN01DEBKQ'
p3550
ag1535
ag1540
ag1542
ag1544
ag1550
ag1552
aS'FLP3FBN01AIIWJ'
p3551
aS'FLP3FBN01DQWOP'
p3552
aS'FLP3FBN01DD801'
p3553
ag1554
aS'FLP3FBN01D8FO0'
p3554
ag1556
aS'FLP3FBN01D75ZT'
p3555
ag1582
aS'FLP3FBN01D0Z6N'
p3556
ag1584
ag1586
ag1588
ag1590
ag1595
aS'FLP3FBN01B67MI'
p3557
ag1597
ag1599
aS'FLP3FBN01DTXOJ'
p3558
ag1634
aS'FLP3FBN01A449C'
p3559
aS'FLP3FBN01A6R98'
p3560
ag1636
aS'FLP3FBN01CS0ML'
p3561
ag1638
ag1640
ag1642
ag1644
ag1646
ag1648
ag1650
ag1652
ag1654
aS'FLP3FBN01C1O95'
p3562
aS'FLP3FBN01DCKQ6'
p3563
ag1670
aS'FLP3FBN01D1GVB'
p3564
aS'FLP3FBN01EZAZQ'
p3565
aS'FLP3FBN01BWH0G'
p3566
ag1672
ag1695
ag1697
ag1699
ag1701
aS'FLP3FBN01EGB8E'
p3567
aS'FLP3FBN01D5SXD'
p3568
ag1703
ag1705
aS'FLP3FBN01BMERW'
p3569
aS'FLP3FBN01BPI1O'
p3570
ag1707
aS'FLP3FBN01EEKR5'
p3571
ag1752
ag1754
aS'FLP3FBN01C0GRI'
p3572
aS'FLP3FBN01C68BF'
p3573
aS'FLP3FBN01BD9IY'
p3574
ag1756
aS'FLP3FBN01COFU8'
p3575
ag1758
aS'FLP3FBN01ETR1Z'
p3576
ag1763
aS'FLP3FBN01EGW4M'
p3577
aS'FLP3FBN01CCNA1'
p3578
ag1765
aS'FLP3FBN01A18XL'
p3579
ag1767
aS'FLP3FBN01D2BCC'
p3580
ag1792
ag1794
aS'FLP3FBN01DQI3A'
p3581
ag1820
ag1822
aS'FLP3FBN01CORTK'
p3582
ag1824
ag1826
aS'FLP3FBN01AO474'
p3583
ag1849
aS'FLP3FBN01BS5XB'
p3584
aS'FLP3FBN01CLZRI'
p3585
atp3586
.